Component: Arm Compiler for Embedded 6.24 Tool: armlink [5f371500]

==============================================================================

Section Cross References

    mbl.o(.text.ymodem_packet_init) refers to mbl.o(.data.p_ibl_api) for p_ibl_api
    mbl.o(.ARM.exidx.text.ymodem_packet_init) refers to mbl.o(.text.ymodem_packet_init) for [Anonymous Symbol]
    mbl.o(.text.main) refers to mbl.o(.data.p_ibl_api) for p_ibl_api
    mbl.o(.text.main) refers to mbl.o(.rodata.str1.1) for .L.str
    mbl.o(.text.main) refers to mbl_systick.o(.text.systick_config) for systick_config
    mbl.o(.text.main) refers to memcpya.o(.text) for __aeabi_memcpy
    mbl.o(.text.main) refers to keys.o(.text.mbl_get_rotpk) for mbl_get_rotpk
    mbl.o(.text.main) refers to mbl.o(.bss.alloc_buf) for alloc_buf
    mbl.o(.text.main) refers to mbl.o(.bss.ymodem_packet) for ymodem_packet
    mbl.o(.text.main) refers to mbl.o(.text.ymodem_packet_init) for ymodem_packet_init
    mbl.o(.text.main) refers to gd32f5xx_usart.o(.text.usart_interrupt_enable) for usart_interrupt_enable
    mbl.o(.text.main) refers to mbl_systick.o(.text.delay_1ms) for delay_1ms
    mbl.o(.text.main) refers to flash_map.o(.text.flash_area_open) for flash_area_open
    mbl.o(.text.main) refers to bootutil_public.o(.text.boot_write_magic) for boot_write_magic
    mbl.o(.text.main) refers to mbl.o(.text.__NVIC_SystemReset) for __NVIC_SystemReset
    mbl.o(.text.main) refers to gd32f5xx_usart.o(.text.usart_interrupt_disable) for usart_interrupt_disable
    mbl.o(.text.main) refers to loader.o(.text.boot_go) for boot_go
    mbl.o(.text.main) refers to mbl.o(.text.do_boot) for do_boot
    mbl.o(.ARM.exidx.text.main) refers to mbl.o(.text.main) for [Anonymous Symbol]
    mbl.o(.ARM.exidx.text.__NVIC_SystemReset) refers to mbl.o(.text.__NVIC_SystemReset) for [Anonymous Symbol]
    mbl.o(.text.do_boot) refers to mbl.o(.data.p_ibl_api) for p_ibl_api
    mbl.o(.text.do_boot) refers to flash_map.o(.text.flash_device_base) for flash_device_base
    mbl.o(.text.do_boot) refers to mbl.o(.rodata.str1.1) for .L.str.7
    mbl.o(.text.do_boot) refers to boot_hal.o(.text.__aeabi_assert) for __aeabi_assert
    mbl.o(.text.do_boot) refers to mbl.o(.bss.do_boot.vt) for do_boot.vt
    mbl.o(.ARM.exidx.text.do_boot) refers to mbl.o(.text.do_boot) for [Anonymous Symbol]
    mbl_gd32f5xx_it.o(.text.NMI_Handler) refers to gd32f5xx_syscfg.o(.text.syscfg_interrupt_flag_get) for syscfg_interrupt_flag_get
    mbl_gd32f5xx_it.o(.text.NMI_Handler) refers to mbl.o(.data.p_ibl_api) for p_ibl_api
    mbl_gd32f5xx_it.o(.text.NMI_Handler) refers to mbl_gd32f5xx_it.o(.rodata.str1.1) for .L.str
    mbl_gd32f5xx_it.o(.ARM.exidx.text.NMI_Handler) refers to mbl_gd32f5xx_it.o(.text.NMI_Handler) for [Anonymous Symbol]
    mbl_gd32f5xx_it.o(.text.HardFault_Handler_c) refers to mbl.o(.data.p_ibl_api) for p_ibl_api
    mbl_gd32f5xx_it.o(.text.HardFault_Handler_c) refers to mbl_gd32f5xx_it.o(.rodata.str1.1) for .L.str.2
    mbl_gd32f5xx_it.o(.ARM.exidx.text.HardFault_Handler_c) refers to mbl_gd32f5xx_it.o(.text.HardFault_Handler_c) for [Anonymous Symbol]
    mbl_gd32f5xx_it.o(.text.HardFault_Handler) refers to mbl_gd32f5xx_it.o(.text.HardFault_Handler_c) for HardFault_Handler_c
    mbl_gd32f5xx_it.o(.ARM.exidx.text.HardFault_Handler) refers to mbl_gd32f5xx_it.o(.text.HardFault_Handler) for [Anonymous Symbol]
    mbl_gd32f5xx_it.o(.ARM.exidx.text.MemManage_Handler) refers to mbl_gd32f5xx_it.o(.text.MemManage_Handler) for [Anonymous Symbol]
    mbl_gd32f5xx_it.o(.ARM.exidx.text.BusFault_Handler) refers to mbl_gd32f5xx_it.o(.text.BusFault_Handler) for [Anonymous Symbol]
    mbl_gd32f5xx_it.o(.ARM.exidx.text.UsageFault_Handler) refers to mbl_gd32f5xx_it.o(.text.UsageFault_Handler) for [Anonymous Symbol]
    mbl_gd32f5xx_it.o(.ARM.exidx.text.SVC_Handler) refers to mbl_gd32f5xx_it.o(.text.SVC_Handler) for [Anonymous Symbol]
    mbl_gd32f5xx_it.o(.ARM.exidx.text.DebugMon_Handler) refers to mbl_gd32f5xx_it.o(.text.DebugMon_Handler) for [Anonymous Symbol]
    mbl_gd32f5xx_it.o(.ARM.exidx.text.PendSV_Handler) refers to mbl_gd32f5xx_it.o(.text.PendSV_Handler) for [Anonymous Symbol]
    mbl_gd32f5xx_it.o(.text.SysTick_Handler) refers to mbl_systick.o(.text.delay_decrement) for delay_decrement
    mbl_gd32f5xx_it.o(.ARM.exidx.text.SysTick_Handler) refers to mbl_gd32f5xx_it.o(.text.SysTick_Handler) for [Anonymous Symbol]
    mbl_gd32f5xx_it.o(.text.UART6_IRQHandler) refers to gd32f5xx_usart.o(.text.usart_interrupt_flag_get) for usart_interrupt_flag_get
    mbl_gd32f5xx_it.o(.text.UART6_IRQHandler) refers to gd32f5xx_usart.o(.text.usart_data_receive) for usart_data_receive
    mbl_gd32f5xx_it.o(.text.UART6_IRQHandler) refers to mbl_gd32f5xx_it.o(.bss.UART6_IRQHandler.flag_cnt) for UART6_IRQHandler.flag_cnt
    mbl_gd32f5xx_it.o(.text.UART6_IRQHandler) refers to mbl.o(.bss.ymodem_packet) for ymodem_packet
    mbl_gd32f5xx_it.o(.ARM.exidx.text.UART6_IRQHandler) refers to mbl_gd32f5xx_it.o(.text.UART6_IRQHandler) for [Anonymous Symbol]
    mbl_systick.o(.text.systick_config) refers to system_gd32f5xx.o(.data.SystemCoreClock) for SystemCoreClock
    mbl_systick.o(.text.systick_config) refers to mbl_systick.o(.text.SysTick_Config) for SysTick_Config
    mbl_systick.o(.text.systick_config) refers to mbl_systick.o(.text.__NVIC_SetPriority) for __NVIC_SetPriority
    mbl_systick.o(.ARM.exidx.text.systick_config) refers to mbl_systick.o(.text.systick_config) for [Anonymous Symbol]
    mbl_systick.o(.text.SysTick_Config) refers to mbl_systick.o(.text.__NVIC_SetPriority) for __NVIC_SetPriority
    mbl_systick.o(.ARM.exidx.text.SysTick_Config) refers to mbl_systick.o(.text.SysTick_Config) for [Anonymous Symbol]
    mbl_systick.o(.ARM.exidx.text.__NVIC_SetPriority) refers to mbl_systick.o(.text.__NVIC_SetPriority) for [Anonymous Symbol]
    mbl_systick.o(.text.delay_1ms) refers to mbl_systick.o(.bss.delay) for delay
    mbl_systick.o(.ARM.exidx.text.delay_1ms) refers to mbl_systick.o(.text.delay_1ms) for [Anonymous Symbol]
    mbl_systick.o(.text.delay_decrement) refers to mbl_systick.o(.bss.delay) for delay
    mbl_systick.o(.ARM.exidx.text.delay_decrement) refers to mbl_systick.o(.text.delay_decrement) for [Anonymous Symbol]
    boot_hal.o(.text.__aeabi_assert) refers to mbl.o(.data.p_ibl_api) for p_ibl_api
    boot_hal.o(.text.__aeabi_assert) refers to boot_hal.o(.rodata.str1.1) for .L.str
    boot_hal.o(.ARM.exidx.text.__aeabi_assert) refers to boot_hal.o(.text.__aeabi_assert) for [Anonymous Symbol]
    flash_map.o(.text.flash_device_base) refers to mbl.o(.data.p_ibl_api) for p_ibl_api
    flash_map.o(.text.flash_device_base) refers to flash_map.o(.rodata.str1.1) for .L.str
    flash_map.o(.ARM.exidx.text.flash_device_base) refers to flash_map.o(.text.flash_device_base) for [Anonymous Symbol]
    flash_map.o(.text.flash_area_open) refers to flash_map.o(.rodata.flash_map) for flash_map
    flash_map.o(.ARM.exidx.text.flash_area_open) refers to flash_map.o(.text.flash_area_open) for [Anonymous Symbol]
    flash_map.o(.ARM.exidx.text.flash_area_close) refers to flash_map.o(.text.flash_area_close) for [Anonymous Symbol]
    flash_map.o(.text.flash_area_read) refers to mbl.o(.data.p_ibl_api) for p_ibl_api
    flash_map.o(.ARM.exidx.text.flash_area_read) refers to flash_map.o(.text.flash_area_read) for [Anonymous Symbol]
    flash_map.o(.text.flash_area_write) refers to mbl.o(.data.p_ibl_api) for p_ibl_api
    flash_map.o(.ARM.exidx.text.flash_area_write) refers to flash_map.o(.text.flash_area_write) for [Anonymous Symbol]
    flash_map.o(.text.flash_area_erase) refers to mbl.o(.data.p_ibl_api) for p_ibl_api
    flash_map.o(.ARM.exidx.text.flash_area_erase) refers to flash_map.o(.text.flash_area_erase) for [Anonymous Symbol]
    flash_map.o(.ARM.exidx.text.flash_area_align) refers to flash_map.o(.text.flash_area_align) for [Anonymous Symbol]
    flash_map.o(.ARM.exidx.text.flash_area_erased_val) refers to flash_map.o(.text.flash_area_erased_val) for [Anonymous Symbol]
    flash_map.o(.ARM.exidx.text.flash_area_id_to_multi_image_slot) refers to flash_map.o(.text.flash_area_id_to_multi_image_slot) for [Anonymous Symbol]
    flash_map.o(.text.flash_area_id_from_image_slot) refers to flash_map.o(.text.flash_area_id_from_multi_image_slot) for flash_area_id_from_multi_image_slot
    flash_map.o(.ARM.exidx.text.flash_area_id_from_image_slot) refers to flash_map.o(.text.flash_area_id_from_image_slot) for [Anonymous Symbol]
    flash_map.o(.ARM.exidx.text.flash_area_id_from_multi_image_slot) refers to flash_map.o(.text.flash_area_id_from_multi_image_slot) for [Anonymous Symbol]
    flash_map.o(.text.flash_area_get_sectors) refers to flash_map.o(.rodata.flash_map) for flash_map
    flash_map.o(.ARM.exidx.text.flash_area_get_sectors) refers to flash_map.o(.text.flash_area_get_sectors) for [Anonymous Symbol]
    keys.o(.text.mbl_get_rotpk) refers to keys.o(.bss.rsa_pub_key_len) for rsa_pub_key_len
    keys.o(.text.mbl_get_rotpk) refers to keys.o(.data.bootutil_keys) for bootutil_keys
    keys.o(.ARM.exidx.text.mbl_get_rotpk) refers to keys.o(.text.mbl_get_rotpk) for [Anonymous Symbol]
    keys.o(.data.bootutil_keys) refers to keys.o(.bss.rsa_pub_key_len) for rsa_pub_key_len
    keys.o(.rodata.bootutil_enc_key) refers to keys.o(.data.enc_priv_key) for enc_priv_key
    keys.o(.rodata.bootutil_enc_key) refers to keys.o(.data.enc_priv_key_len) for [Anonymous Symbol]
    bootutil_misc.o(.text.boot_fih_memequal) refers to memcmp.o(.text) for memcmp
    bootutil_misc.o(.ARM.exidx.text.boot_fih_memequal) refers to bootutil_misc.o(.text.boot_fih_memequal) for [Anonymous Symbol]
    bootutil_misc.o(.text.boot_status_sz) refers to bootutil_misc.o(.text.boot_status_entry_sz) for boot_status_entry_sz
    bootutil_misc.o(.ARM.exidx.text.boot_status_sz) refers to bootutil_misc.o(.text.boot_status_sz) for [Anonymous Symbol]
    bootutil_misc.o(.ARM.exidx.text.boot_status_entry_sz) refers to bootutil_misc.o(.text.boot_status_entry_sz) for [Anonymous Symbol]
    bootutil_misc.o(.text.boot_trailer_sz) refers to bootutil_misc.o(.text.boot_status_sz) for boot_status_sz
    bootutil_misc.o(.text.boot_trailer_sz) refers to bootutil_misc.o(.text.boot_trailer_info_sz) for boot_trailer_info_sz
    bootutil_misc.o(.ARM.exidx.text.boot_trailer_sz) refers to bootutil_misc.o(.text.boot_trailer_sz) for [Anonymous Symbol]
    bootutil_misc.o(.ARM.exidx.text.boot_trailer_info_sz) refers to bootutil_misc.o(.text.boot_trailer_info_sz) for [Anonymous Symbol]
    bootutil_misc.o(.text.boot_status_entries) refers to bootutil_misc.o(.text.flash_area_get_id) for flash_area_get_id
    bootutil_misc.o(.ARM.exidx.text.boot_status_entries) refers to bootutil_misc.o(.text.boot_status_entries) for [Anonymous Symbol]
    bootutil_misc.o(.ARM.exidx.text.flash_area_get_id) refers to bootutil_misc.o(.text.flash_area_get_id) for [Anonymous Symbol]
    bootutil_misc.o(.text.boot_status_off) refers to flash_map.o(.text.flash_area_align) for flash_area_align
    bootutil_misc.o(.text.boot_status_off) refers to bootutil_misc.o(.text.boot_scratch_trailer_sz) for boot_scratch_trailer_sz
    bootutil_misc.o(.text.boot_status_off) refers to bootutil_misc.o(.text.boot_trailer_sz) for boot_trailer_sz
    bootutil_misc.o(.text.boot_status_off) refers to bootutil_misc.o(.text.flash_area_get_size) for flash_area_get_size
    bootutil_misc.o(.text.boot_status_off) refers to bootutil_misc.o(.rodata.str1.1) for .L.str
    bootutil_misc.o(.text.boot_status_off) refers to boot_hal.o(.text.__aeabi_assert) for __aeabi_assert
    bootutil_misc.o(.ARM.exidx.text.boot_status_off) refers to bootutil_misc.o(.text.boot_status_off) for [Anonymous Symbol]
    bootutil_misc.o(.text.boot_scratch_trailer_sz) refers to bootutil_misc.o(.text.boot_status_entry_sz) for boot_status_entry_sz
    bootutil_misc.o(.text.boot_scratch_trailer_sz) refers to bootutil_misc.o(.text.boot_trailer_info_sz) for boot_trailer_info_sz
    bootutil_misc.o(.ARM.exidx.text.boot_scratch_trailer_sz) refers to bootutil_misc.o(.text.boot_scratch_trailer_sz) for [Anonymous Symbol]
    bootutil_misc.o(.ARM.exidx.text.flash_area_get_size) refers to bootutil_misc.o(.text.flash_area_get_size) for [Anonymous Symbol]
    bootutil_misc.o(.text.boot_find_status) refers to flash_map.o(.text.flash_area_open) for flash_area_open
    bootutil_misc.o(.text.boot_find_status) refers to bootutil_misc.o(.text.boot_magic_off) for boot_magic_off
    bootutil_misc.o(.text.boot_find_status) refers to flash_map.o(.text.flash_area_read) for flash_area_read
    bootutil_misc.o(.text.boot_find_status) refers to flash_map.o(.text.flash_area_close) for flash_area_close
    bootutil_misc.o(.text.boot_find_status) refers to bootutil_misc.o(.text.boot_magic_decode) for boot_magic_decode
    bootutil_misc.o(.ARM.exidx.text.boot_find_status) refers to bootutil_misc.o(.text.boot_find_status) for [Anonymous Symbol]
    bootutil_misc.o(.text.boot_magic_off) refers to bootutil_misc.o(.text.flash_area_get_size) for flash_area_get_size
    bootutil_misc.o(.ARM.exidx.text.boot_magic_off) refers to bootutil_misc.o(.text.boot_magic_off) for [Anonymous Symbol]
    bootutil_misc.o(.text.boot_magic_decode) refers to bootutil_public.o(.rodata.boot_img_magic) for boot_img_magic
    bootutil_misc.o(.text.boot_magic_decode) refers to memcmp.o(.text) for memcmp
    bootutil_misc.o(.ARM.exidx.text.boot_magic_decode) refers to bootutil_misc.o(.text.boot_magic_decode) for [Anonymous Symbol]
    bootutil_misc.o(.text.boot_read_swap_size) refers to bootutil_misc.o(.text.boot_swap_size_off) for boot_swap_size_off
    bootutil_misc.o(.text.boot_read_swap_size) refers to flash_map.o(.text.flash_area_read) for flash_area_read
    bootutil_misc.o(.ARM.exidx.text.boot_read_swap_size) refers to bootutil_misc.o(.text.boot_read_swap_size) for [Anonymous Symbol]
    bootutil_misc.o(.text.boot_swap_size_off) refers to bootutil_public.o(.text.boot_swap_info_off) for boot_swap_info_off
    bootutil_misc.o(.ARM.exidx.text.boot_swap_size_off) refers to bootutil_misc.o(.text.boot_swap_size_off) for [Anonymous Symbol]
    bootutil_misc.o(.text.boot_read_enc_key) refers to bootutil_misc.o(.text.boot_enc_key_off) for boot_enc_key_off
    bootutil_misc.o(.text.boot_read_enc_key) refers to flash_map.o(.text.flash_area_read) for flash_area_read
    bootutil_misc.o(.ARM.exidx.text.boot_read_enc_key) refers to bootutil_misc.o(.text.boot_read_enc_key) for [Anonymous Symbol]
    bootutil_misc.o(.text.boot_enc_key_off) refers to bootutil_misc.o(.text.boot_swap_size_off) for boot_swap_size_off
    bootutil_misc.o(.ARM.exidx.text.boot_enc_key_off) refers to bootutil_misc.o(.text.boot_enc_key_off) for [Anonymous Symbol]
    bootutil_misc.o(.text.boot_write_swap_size) refers to bootutil_misc.o(.text.boot_swap_size_off) for boot_swap_size_off
    bootutil_misc.o(.text.boot_write_swap_size) refers to mbl.o(.data.p_ibl_api) for p_ibl_api
    bootutil_misc.o(.text.boot_write_swap_size) refers to bootutil_misc.o(.text.flash_area_get_id) for flash_area_get_id
    bootutil_misc.o(.text.boot_write_swap_size) refers to bootutil_misc.o(.text.flash_area_get_off) for flash_area_get_off
    bootutil_misc.o(.text.boot_write_swap_size) refers to bootutil_misc.o(.rodata.str1.1) for .L.str.2
    bootutil_misc.o(.text.boot_write_swap_size) refers to bootutil_public.o(.text.boot_write_trailer) for boot_write_trailer
    bootutil_misc.o(.ARM.exidx.text.boot_write_swap_size) refers to bootutil_misc.o(.text.boot_write_swap_size) for [Anonymous Symbol]
    bootutil_misc.o(.ARM.exidx.text.flash_area_get_off) refers to bootutil_misc.o(.text.flash_area_get_off) for [Anonymous Symbol]
    bootutil_misc.o(.text.boot_write_enc_key) refers to bootutil_misc.o(.text.boot_enc_key_off) for boot_enc_key_off
    bootutil_misc.o(.text.boot_write_enc_key) refers to mbl.o(.data.p_ibl_api) for p_ibl_api
    bootutil_misc.o(.text.boot_write_enc_key) refers to bootutil_misc.o(.text.flash_area_get_id) for flash_area_get_id
    bootutil_misc.o(.text.boot_write_enc_key) refers to bootutil_misc.o(.text.flash_area_get_off) for flash_area_get_off
    bootutil_misc.o(.text.boot_write_enc_key) refers to bootutil_misc.o(.rodata.str1.1) for .L.str.3
    bootutil_misc.o(.text.boot_write_enc_key) refers to flash_map.o(.text.flash_area_write) for flash_area_write
    bootutil_misc.o(.ARM.exidx.text.boot_write_enc_key) refers to bootutil_misc.o(.text.boot_write_enc_key) for [Anonymous Symbol]
    bootutil_misc.o(.text.bootutil_max_image_size) refers to bootutil_misc.o(.text.boot_status_off) for boot_status_off
    bootutil_misc.o(.ARM.exidx.text.bootutil_max_image_size) refers to bootutil_misc.o(.text.bootutil_max_image_size) for [Anonymous Symbol]
    bootutil_public.o(.text.boot_swap_info_off) refers to bootutil_public.o(.text.boot_copy_done_off) for boot_copy_done_off
    bootutil_public.o(.ARM.exidx.text.boot_swap_info_off) refers to bootutil_public.o(.text.boot_swap_info_off) for [Anonymous Symbol]
    bootutil_public.o(.text.boot_copy_done_off) refers to bootutil_public.o(.text.boot_image_ok_off) for boot_image_ok_off
    bootutil_public.o(.ARM.exidx.text.boot_copy_done_off) refers to bootutil_public.o(.text.boot_copy_done_off) for [Anonymous Symbol]
    bootutil_public.o(.ARM.exidx.text.boot_magic_compatible_check) refers to bootutil_public.o(.text.boot_magic_compatible_check) for [Anonymous Symbol]
    bootutil_public.o(.text.bootutil_buffer_is_erased) refers to flash_map.o(.text.flash_area_erased_val) for flash_area_erased_val
    bootutil_public.o(.ARM.exidx.text.bootutil_buffer_is_erased) refers to bootutil_public.o(.text.bootutil_buffer_is_erased) for [Anonymous Symbol]
    bootutil_public.o(.text.boot_read_swap_state) refers to bootutil_public.o(.text.boot_magic_off) for boot_magic_off
    bootutil_public.o(.text.boot_read_swap_state) refers to flash_map.o(.text.flash_area_read) for flash_area_read
    bootutil_public.o(.text.boot_read_swap_state) refers to bootutil_public.o(.text.bootutil_buffer_is_erased) for bootutil_buffer_is_erased
    bootutil_public.o(.text.boot_read_swap_state) refers to bootutil_public.o(.text.boot_magic_decode) for boot_magic_decode
    bootutil_public.o(.text.boot_read_swap_state) refers to bootutil_public.o(.text.boot_swap_info_off) for boot_swap_info_off
    bootutil_public.o(.text.boot_read_swap_state) refers to bootutil_public.o(.text.boot_read_copy_done) for boot_read_copy_done
    bootutil_public.o(.text.boot_read_swap_state) refers to bootutil_public.o(.text.boot_read_image_ok) for boot_read_image_ok
    bootutil_public.o(.ARM.exidx.text.boot_read_swap_state) refers to bootutil_public.o(.text.boot_read_swap_state) for [Anonymous Symbol]
    bootutil_public.o(.text.boot_magic_off) refers to bootutil_public.o(.text.flash_area_get_size) for flash_area_get_size
    bootutil_public.o(.ARM.exidx.text.boot_magic_off) refers to bootutil_public.o(.text.boot_magic_off) for [Anonymous Symbol]
    bootutil_public.o(.text.boot_magic_decode) refers to bootutil_public.o(.rodata.boot_img_magic) for boot_img_magic
    bootutil_public.o(.text.boot_magic_decode) refers to memcmp.o(.text) for memcmp
    bootutil_public.o(.ARM.exidx.text.boot_magic_decode) refers to bootutil_public.o(.text.boot_magic_decode) for [Anonymous Symbol]
    bootutil_public.o(.text.boot_read_copy_done) refers to bootutil_public.o(.text.boot_copy_done_off) for boot_copy_done_off
    bootutil_public.o(.text.boot_read_copy_done) refers to bootutil_public.o(.text.boot_read_flag) for boot_read_flag
    bootutil_public.o(.ARM.exidx.text.boot_read_copy_done) refers to bootutil_public.o(.text.boot_read_copy_done) for [Anonymous Symbol]
    bootutil_public.o(.text.boot_read_image_ok) refers to bootutil_public.o(.text.boot_image_ok_off) for boot_image_ok_off
    bootutil_public.o(.text.boot_read_image_ok) refers to bootutil_public.o(.text.boot_read_flag) for boot_read_flag
    bootutil_public.o(.ARM.exidx.text.boot_read_image_ok) refers to bootutil_public.o(.text.boot_read_image_ok) for [Anonymous Symbol]
    bootutil_public.o(.text.boot_read_swap_state_by_id) refers to flash_map.o(.text.flash_area_open) for flash_area_open
    bootutil_public.o(.text.boot_read_swap_state_by_id) refers to bootutil_public.o(.text.boot_read_swap_state) for boot_read_swap_state
    bootutil_public.o(.text.boot_read_swap_state_by_id) refers to flash_map.o(.text.flash_area_close) for flash_area_close
    bootutil_public.o(.ARM.exidx.text.boot_read_swap_state_by_id) refers to bootutil_public.o(.text.boot_read_swap_state_by_id) for [Anonymous Symbol]
    bootutil_public.o(.text.boot_write_magic) refers to bootutil_public.o(.text.boot_magic_off) for boot_magic_off
    bootutil_public.o(.text.boot_write_magic) refers to flash_map.o(.text.flash_area_erased_val) for flash_area_erased_val
    bootutil_public.o(.text.boot_write_magic) refers to mbl.o(.data.p_ibl_api) for p_ibl_api
    bootutil_public.o(.text.boot_write_magic) refers to bootutil_public.o(.text.flash_area_get_id) for flash_area_get_id
    bootutil_public.o(.text.boot_write_magic) refers to bootutil_public.o(.text.flash_area_get_off) for flash_area_get_off
    bootutil_public.o(.text.boot_write_magic) refers to bootutil_public.o(.rodata.str1.1) for .L.str
    bootutil_public.o(.text.boot_write_magic) refers to flash_map.o(.text.flash_area_write) for flash_area_write
    bootutil_public.o(.ARM.exidx.text.boot_write_magic) refers to bootutil_public.o(.text.boot_write_magic) for [Anonymous Symbol]
    bootutil_public.o(.ARM.exidx.text.flash_area_get_id) refers to bootutil_public.o(.text.flash_area_get_id) for [Anonymous Symbol]
    bootutil_public.o(.ARM.exidx.text.flash_area_get_off) refers to bootutil_public.o(.text.flash_area_get_off) for [Anonymous Symbol]
    bootutil_public.o(.text.boot_write_trailer) refers to flash_map.o(.text.flash_area_align) for flash_area_align
    bootutil_public.o(.text.boot_write_trailer) refers to flash_map.o(.text.flash_area_erased_val) for flash_area_erased_val
    bootutil_public.o(.text.boot_write_trailer) refers to memcpya.o(.text) for __aeabi_memcpy
    bootutil_public.o(.text.boot_write_trailer) refers to memseta.o(.text) for __aeabi_memset
    bootutil_public.o(.text.boot_write_trailer) refers to flash_map.o(.text.flash_area_write) for flash_area_write
    bootutil_public.o(.ARM.exidx.text.boot_write_trailer) refers to bootutil_public.o(.text.boot_write_trailer) for [Anonymous Symbol]
    bootutil_public.o(.text.boot_write_trailer_flag) refers to bootutil_public.o(.text.boot_write_trailer) for boot_write_trailer
    bootutil_public.o(.ARM.exidx.text.boot_write_trailer_flag) refers to bootutil_public.o(.text.boot_write_trailer_flag) for [Anonymous Symbol]
    bootutil_public.o(.text.boot_write_image_ok) refers to bootutil_public.o(.text.boot_image_ok_off) for boot_image_ok_off
    bootutil_public.o(.text.boot_write_image_ok) refers to mbl.o(.data.p_ibl_api) for p_ibl_api
    bootutil_public.o(.text.boot_write_image_ok) refers to bootutil_public.o(.text.flash_area_get_id) for flash_area_get_id
    bootutil_public.o(.text.boot_write_image_ok) refers to bootutil_public.o(.text.flash_area_get_off) for flash_area_get_off
    bootutil_public.o(.text.boot_write_image_ok) refers to bootutil_public.o(.rodata.str1.1) for .L.str.1
    bootutil_public.o(.text.boot_write_image_ok) refers to bootutil_public.o(.text.boot_write_trailer_flag) for boot_write_trailer_flag
    bootutil_public.o(.ARM.exidx.text.boot_write_image_ok) refers to bootutil_public.o(.text.boot_write_image_ok) for [Anonymous Symbol]
    bootutil_public.o(.text.boot_image_ok_off) refers to bootutil_public.o(.text.boot_magic_off) for boot_magic_off
    bootutil_public.o(.ARM.exidx.text.boot_image_ok_off) refers to bootutil_public.o(.text.boot_image_ok_off) for [Anonymous Symbol]
    bootutil_public.o(.text.boot_write_image_ok_unset) refers to bootutil_public.o(.text.boot_image_ok_off) for boot_image_ok_off
    bootutil_public.o(.text.boot_write_image_ok_unset) refers to flash_map.o(.text.flash_area_erased_val) for flash_area_erased_val
    bootutil_public.o(.text.boot_write_image_ok_unset) refers to mbl.o(.data.p_ibl_api) for p_ibl_api
    bootutil_public.o(.text.boot_write_image_ok_unset) refers to bootutil_public.o(.text.flash_area_get_id) for flash_area_get_id
    bootutil_public.o(.text.boot_write_image_ok_unset) refers to bootutil_public.o(.text.flash_area_get_off) for flash_area_get_off
    bootutil_public.o(.text.boot_write_image_ok_unset) refers to bootutil_public.o(.rodata.str1.1) for .L.str.2
    bootutil_public.o(.text.boot_write_image_ok_unset) refers to bootutil_public.o(.text.boot_write_trailer_flag) for boot_write_trailer_flag
    bootutil_public.o(.ARM.exidx.text.boot_write_image_ok_unset) refers to bootutil_public.o(.text.boot_write_image_ok_unset) for [Anonymous Symbol]
    bootutil_public.o(.text.boot_write_copy_done_unset) refers to bootutil_public.o(.text.boot_copy_done_off) for boot_copy_done_off
    bootutil_public.o(.text.boot_write_copy_done_unset) refers to flash_map.o(.text.flash_area_erased_val) for flash_area_erased_val
    bootutil_public.o(.text.boot_write_copy_done_unset) refers to mbl.o(.data.p_ibl_api) for p_ibl_api
    bootutil_public.o(.text.boot_write_copy_done_unset) refers to bootutil_public.o(.text.flash_area_get_id) for flash_area_get_id
    bootutil_public.o(.text.boot_write_copy_done_unset) refers to bootutil_public.o(.text.flash_area_get_off) for flash_area_get_off
    bootutil_public.o(.text.boot_write_copy_done_unset) refers to bootutil_public.o(.rodata.str1.1) for .L.str.3
    bootutil_public.o(.text.boot_write_copy_done_unset) refers to bootutil_public.o(.text.boot_write_trailer_flag) for boot_write_trailer_flag
    bootutil_public.o(.ARM.exidx.text.boot_write_copy_done_unset) refers to bootutil_public.o(.text.boot_write_copy_done_unset) for [Anonymous Symbol]
    bootutil_public.o(.text.boot_write_magic_unset) refers to bootutil_public.o(.text.boot_magic_off) for boot_magic_off
    bootutil_public.o(.text.boot_write_magic_unset) refers to flash_map.o(.text.flash_area_erased_val) for flash_area_erased_val
    bootutil_public.o(.text.boot_write_magic_unset) refers to mbl.o(.data.p_ibl_api) for p_ibl_api
    bootutil_public.o(.text.boot_write_magic_unset) refers to bootutil_public.o(.text.flash_area_get_id) for flash_area_get_id
    bootutil_public.o(.text.boot_write_magic_unset) refers to bootutil_public.o(.text.flash_area_get_off) for flash_area_get_off
    bootutil_public.o(.text.boot_write_magic_unset) refers to bootutil_public.o(.rodata.str1.1) for .L.str.4
    bootutil_public.o(.text.boot_write_magic_unset) refers to flash_map.o(.text.flash_area_write) for flash_area_write
    bootutil_public.o(.ARM.exidx.text.boot_write_magic_unset) refers to bootutil_public.o(.text.boot_write_magic_unset) for [Anonymous Symbol]
    bootutil_public.o(.text.boot_read_flag) refers to flash_map.o(.text.flash_area_read) for flash_area_read
    bootutil_public.o(.text.boot_read_flag) refers to bootutil_public.o(.text.bootutil_buffer_is_erased) for bootutil_buffer_is_erased
    bootutil_public.o(.text.boot_read_flag) refers to bootutil_public.o(.text.boot_flag_decode) for boot_flag_decode
    bootutil_public.o(.ARM.exidx.text.boot_read_flag) refers to bootutil_public.o(.text.boot_read_flag) for [Anonymous Symbol]
    bootutil_public.o(.text.boot_write_swap_info) refers to bootutil_public.o(.rodata.str1.1) for .L.str.5
    bootutil_public.o(.text.boot_write_swap_info) refers to boot_hal.o(.text.__aeabi_assert) for __aeabi_assert
    bootutil_public.o(.text.boot_write_swap_info) refers to bootutil_public.o(.text.boot_swap_info_off) for boot_swap_info_off
    bootutil_public.o(.text.boot_write_swap_info) refers to mbl.o(.data.p_ibl_api) for p_ibl_api
    bootutil_public.o(.text.boot_write_swap_info) refers to bootutil_public.o(.text.flash_area_get_id) for flash_area_get_id
    bootutil_public.o(.text.boot_write_swap_info) refers to bootutil_public.o(.text.flash_area_get_off) for flash_area_get_off
    bootutil_public.o(.text.boot_write_swap_info) refers to bootutil_public.o(.text.boot_write_trailer) for boot_write_trailer
    bootutil_public.o(.ARM.exidx.text.boot_write_swap_info) refers to bootutil_public.o(.text.boot_write_swap_info) for [Anonymous Symbol]
    bootutil_public.o(.text.boot_swap_type_multi) refers to bootutil_public.o(.text.boot_read_swap_state_by_id) for boot_read_swap_state_by_id
    bootutil_public.o(.text.boot_swap_type_multi) refers to mbl.o(.data.p_ibl_api) for p_ibl_api
    bootutil_public.o(.text.boot_swap_type_multi) refers to bootutil_public.o(.rodata.str1.1) for .L.str.9
    bootutil_public.o(.text.boot_swap_type_multi) refers to bootutil_public.o(.rodata.boot_swap_tables) for boot_swap_tables
    bootutil_public.o(.text.boot_swap_type_multi) refers to bootutil_public.o(.text.boot_magic_compatible_check) for boot_magic_compatible_check
    bootutil_public.o(.ARM.exidx.text.boot_swap_type_multi) refers to bootutil_public.o(.text.boot_swap_type_multi) for [Anonymous Symbol]
    bootutil_public.o(.text.boot_write_copy_done) refers to bootutil_public.o(.text.boot_copy_done_off) for boot_copy_done_off
    bootutil_public.o(.text.boot_write_copy_done) refers to mbl.o(.data.p_ibl_api) for p_ibl_api
    bootutil_public.o(.text.boot_write_copy_done) refers to bootutil_public.o(.text.flash_area_get_id) for flash_area_get_id
    bootutil_public.o(.text.boot_write_copy_done) refers to bootutil_public.o(.text.flash_area_get_off) for flash_area_get_off
    bootutil_public.o(.text.boot_write_copy_done) refers to bootutil_public.o(.rodata.str1.1) for .L.str.16
    bootutil_public.o(.text.boot_write_copy_done) refers to bootutil_public.o(.text.boot_write_trailer_flag) for boot_write_trailer_flag
    bootutil_public.o(.ARM.exidx.text.boot_write_copy_done) refers to bootutil_public.o(.text.boot_write_copy_done) for [Anonymous Symbol]
    bootutil_public.o(.text.boot_set_next) refers to bootutil_public.o(.text.boot_read_swap_state) for boot_read_swap_state
    bootutil_public.o(.text.boot_set_next) refers to bootutil_public.o(.text.boot_write_image_ok) for boot_write_image_ok
    bootutil_public.o(.text.boot_set_next) refers to bootutil_public.o(.text.boot_write_magic) for boot_write_magic
    bootutil_public.o(.text.boot_set_next) refers to bootutil_public.o(.text.flash_area_to_image) for flash_area_to_image
    bootutil_public.o(.text.boot_set_next) refers to bootutil_public.o(.text.boot_write_swap_info) for boot_write_swap_info
    bootutil_public.o(.text.boot_set_next) refers to bootutil_public.o(.text.flash_area_get_size) for flash_area_get_size
    bootutil_public.o(.text.boot_set_next) refers to flash_map.o(.text.flash_area_erase) for flash_area_erase
    bootutil_public.o(.text.boot_set_next) refers to bootutil_public.o(.rodata.str1.1) for .L.str.17
    bootutil_public.o(.text.boot_set_next) refers to boot_hal.o(.text.__aeabi_assert) for __aeabi_assert
    bootutil_public.o(.ARM.exidx.text.boot_set_next) refers to bootutil_public.o(.text.boot_set_next) for [Anonymous Symbol]
    bootutil_public.o(.ARM.exidx.text.flash_area_to_image) refers to bootutil_public.o(.text.flash_area_to_image) for [Anonymous Symbol]
    bootutil_public.o(.ARM.exidx.text.flash_area_get_size) refers to bootutil_public.o(.text.flash_area_get_size) for [Anonymous Symbol]
    bootutil_public.o(.text.boot_swap_type) refers to bootutil_public.o(.text.boot_swap_type_multi) for boot_swap_type_multi
    bootutil_public.o(.ARM.exidx.text.boot_swap_type) refers to bootutil_public.o(.text.boot_swap_type) for [Anonymous Symbol]
    bootutil_public.o(.text.boot_set_pending_multi) refers to flash_map.o(.text.flash_area_open) for flash_area_open
    bootutil_public.o(.text.boot_set_pending_multi) refers to bootutil_public.o(.text.boot_set_next) for boot_set_next
    bootutil_public.o(.text.boot_set_pending_multi) refers to flash_map.o(.text.flash_area_close) for flash_area_close
    bootutil_public.o(.ARM.exidx.text.boot_set_pending_multi) refers to bootutil_public.o(.text.boot_set_pending_multi) for [Anonymous Symbol]
    bootutil_public.o(.text.boot_set_pending) refers to bootutil_public.o(.text.boot_set_pending_multi) for boot_set_pending_multi
    bootutil_public.o(.ARM.exidx.text.boot_set_pending) refers to bootutil_public.o(.text.boot_set_pending) for [Anonymous Symbol]
    bootutil_public.o(.text.boot_set_confirmed_multi) refers to flash_map.o(.text.flash_area_open) for flash_area_open
    bootutil_public.o(.text.boot_set_confirmed_multi) refers to bootutil_public.o(.text.boot_set_next) for boot_set_next
    bootutil_public.o(.text.boot_set_confirmed_multi) refers to flash_map.o(.text.flash_area_close) for flash_area_close
    bootutil_public.o(.ARM.exidx.text.boot_set_confirmed_multi) refers to bootutil_public.o(.text.boot_set_confirmed_multi) for [Anonymous Symbol]
    bootutil_public.o(.text.boot_set_confirmed) refers to bootutil_public.o(.text.boot_set_confirmed_multi) for boot_set_confirmed_multi
    bootutil_public.o(.ARM.exidx.text.boot_set_confirmed) refers to bootutil_public.o(.text.boot_set_confirmed) for [Anonymous Symbol]
    bootutil_public.o(.text.boot_image_load_header) refers to flash_map.o(.text.flash_area_read) for flash_area_read
    bootutil_public.o(.text.boot_image_load_header) refers to mbl.o(.data.p_ibl_api) for p_ibl_api
    bootutil_public.o(.text.boot_image_load_header) refers to bootutil_public.o(.rodata.str1.1) for .L.str.18
    bootutil_public.o(.text.boot_image_load_header) refers to bootutil_public.o(.text.boot_u32_safe_add) for boot_u32_safe_add
    bootutil_public.o(.text.boot_image_load_header) refers to bootutil_public.o(.text.flash_area_get_size) for flash_area_get_size
    bootutil_public.o(.ARM.exidx.text.boot_image_load_header) refers to bootutil_public.o(.text.boot_image_load_header) for [Anonymous Symbol]
    bootutil_public.o(.ARM.exidx.text.boot_u32_safe_add) refers to bootutil_public.o(.text.boot_u32_safe_add) for [Anonymous Symbol]
    bootutil_public.o(.ARM.exidx.text.boot_flag_decode) refers to bootutil_public.o(.text.boot_flag_decode) for [Anonymous Symbol]
    caps.o(.ARM.exidx.text.bootutil_get_caps) refers to caps.o(.text.bootutil_get_caps) for [Anonymous Symbol]
    caps.o(.ARM.exidx.text.bootutil_get_num_images) refers to caps.o(.text.bootutil_get_num_images) for [Anonymous Symbol]
    encrypted.o(.text.boot_enc_init) refers to encrypted.o(.text.bootutil_aes_ctr_init) for bootutil_aes_ctr_init
    encrypted.o(.ARM.exidx.text.boot_enc_init) refers to encrypted.o(.text.boot_enc_init) for [Anonymous Symbol]
    encrypted.o(.ARM.exidx.text.bootutil_aes_ctr_init) refers to encrypted.o(.text.bootutil_aes_ctr_init) for [Anonymous Symbol]
    encrypted.o(.text.boot_enc_drop) refers to encrypted.o(.text.bootutil_aes_ctr_drop) for bootutil_aes_ctr_drop
    encrypted.o(.ARM.exidx.text.boot_enc_drop) refers to encrypted.o(.text.boot_enc_drop) for [Anonymous Symbol]
    encrypted.o(.ARM.exidx.text.bootutil_aes_ctr_drop) refers to encrypted.o(.text.bootutil_aes_ctr_drop) for [Anonymous Symbol]
    encrypted.o(.text.boot_enc_set_key) refers to encrypted.o(.text.bootutil_aes_ctr_set_key) for bootutil_aes_ctr_set_key
    encrypted.o(.text.boot_enc_set_key) refers to encrypted.o(.text.boot_enc_drop) for boot_enc_drop
    encrypted.o(.ARM.exidx.text.boot_enc_set_key) refers to encrypted.o(.text.boot_enc_set_key) for [Anonymous Symbol]
    encrypted.o(.ARM.exidx.text.bootutil_aes_ctr_set_key) refers to encrypted.o(.text.bootutil_aes_ctr_set_key) for [Anonymous Symbol]
    encrypted.o(.text.boot_enc_decrypt) refers to encrypted.o(.text.bootutil_rsa_init) for bootutil_rsa_init
    encrypted.o(.text.boot_enc_decrypt) refers to keys.o(.rodata.bootutil_enc_key) for bootutil_enc_key
    encrypted.o(.text.boot_enc_decrypt) refers to encrypted.o(.text.bootutil_rsa_parse_private_key) for bootutil_rsa_parse_private_key
    encrypted.o(.text.boot_enc_decrypt) refers to encrypted.o(.text.bootutil_rsa_drop) for bootutil_rsa_drop
    encrypted.o(.text.boot_enc_decrypt) refers to encrypted.o(.text.bootutil_rsa_oaep_decrypt) for bootutil_rsa_oaep_decrypt
    encrypted.o(.ARM.exidx.text.boot_enc_decrypt) refers to encrypted.o(.text.boot_enc_decrypt) for [Anonymous Symbol]
    encrypted.o(.ARM.exidx.text.bootutil_rsa_init) refers to encrypted.o(.text.bootutil_rsa_init) for [Anonymous Symbol]
    encrypted.o(.ARM.exidx.text.bootutil_rsa_parse_private_key) refers to encrypted.o(.text.bootutil_rsa_parse_private_key) for [Anonymous Symbol]
    encrypted.o(.ARM.exidx.text.bootutil_rsa_drop) refers to encrypted.o(.text.bootutil_rsa_drop) for [Anonymous Symbol]
    encrypted.o(.ARM.exidx.text.bootutil_rsa_oaep_decrypt) refers to encrypted.o(.text.bootutil_rsa_oaep_decrypt) for [Anonymous Symbol]
    encrypted.o(.text.boot_enc_load) refers to encrypted.o(.text.flash_area_get_id) for flash_area_get_id
    encrypted.o(.text.boot_enc_load) refers to flash_map.o(.text.flash_area_id_to_multi_image_slot) for flash_area_id_to_multi_image_slot
    encrypted.o(.text.boot_enc_load) refers to encrypted.o(.text.boot_enc_init) for boot_enc_init
    encrypted.o(.text.boot_enc_load) refers to tlv.o(.text.bootutil_tlv_iter_begin) for bootutil_tlv_iter_begin
    encrypted.o(.text.boot_enc_load) refers to tlv.o(.text.bootutil_tlv_iter_next) for bootutil_tlv_iter_next
    encrypted.o(.text.boot_enc_load) refers to flash_map.o(.text.flash_area_read) for flash_area_read
    encrypted.o(.text.boot_enc_load) refers to encrypted.o(.text.boot_enc_decrypt) for boot_enc_decrypt
    encrypted.o(.ARM.exidx.text.boot_enc_load) refers to encrypted.o(.text.boot_enc_load) for [Anonymous Symbol]
    encrypted.o(.ARM.exidx.text.flash_area_get_id) refers to encrypted.o(.text.flash_area_get_id) for [Anonymous Symbol]
    encrypted.o(.text.boot_enc_valid) refers to encrypted.o(.text.flash_area_get_id) for flash_area_get_id
    encrypted.o(.text.boot_enc_valid) refers to flash_map.o(.text.flash_area_id_to_multi_image_slot) for flash_area_id_to_multi_image_slot
    encrypted.o(.ARM.exidx.text.boot_enc_valid) refers to encrypted.o(.text.boot_enc_valid) for [Anonymous Symbol]
    encrypted.o(.text.boot_encrypt) refers to encrypted.o(.text.flash_area_get_id) for flash_area_get_id
    encrypted.o(.text.boot_encrypt) refers to flash_map.o(.text.flash_area_id_to_multi_image_slot) for flash_area_id_to_multi_image_slot
    encrypted.o(.text.boot_encrypt) refers to encrypted.o(.rodata.str1.1) for .L.str
    encrypted.o(.text.boot_encrypt) refers to boot_hal.o(.text.__aeabi_assert) for __aeabi_assert
    encrypted.o(.text.boot_encrypt) refers to encrypted.o(.text.bootutil_aes_ctr_encrypt) for bootutil_aes_ctr_encrypt
    encrypted.o(.ARM.exidx.text.boot_encrypt) refers to encrypted.o(.text.boot_encrypt) for [Anonymous Symbol]
    encrypted.o(.ARM.exidx.text.bootutil_aes_ctr_encrypt) refers to encrypted.o(.text.bootutil_aes_ctr_encrypt) for [Anonymous Symbol]
    encrypted.o(.text.boot_enc_zeroize) refers to encrypted.o(.text.boot_enc_drop) for boot_enc_drop
    encrypted.o(.text.boot_enc_zeroize) refers to memseta.o(.text) for __aeabi_memclr4
    encrypted.o(.ARM.exidx.text.boot_enc_zeroize) refers to encrypted.o(.text.boot_enc_zeroize) for [Anonymous Symbol]
    image_rsa.o(.text.bootutil_verify_sig) refers to fault_injection_hardening.o(.data.FIH_FAILURE) for FIH_FAILURE
    image_rsa.o(.text.bootutil_verify_sig) refers to keys.o(.data.bootutil_keys) for bootutil_keys
    image_rsa.o(.text.bootutil_verify_sig) refers to mbl.o(.data.p_ibl_api) for p_ibl_api
    image_rsa.o(.text.bootutil_verify_sig) refers to fault_injection_hardening.o(.bss.FIH_SUCCESS) for FIH_SUCCESS
    image_rsa.o(.ARM.exidx.text.bootutil_verify_sig) refers to image_rsa.o(.text.bootutil_verify_sig) for [Anonymous Symbol]
    image_validate.o(.text.bootutil_get_img_security_cnt) refers to tlv.o(.text.bootutil_tlv_iter_begin) for bootutil_tlv_iter_begin
    image_validate.o(.text.bootutil_get_img_security_cnt) refers to tlv.o(.text.bootutil_tlv_iter_next) for bootutil_tlv_iter_next
    image_validate.o(.text.bootutil_get_img_security_cnt) refers to flash_map.o(.text.flash_area_read) for flash_area_read
    image_validate.o(.ARM.exidx.text.bootutil_get_img_security_cnt) refers to image_validate.o(.text.bootutil_get_img_security_cnt) for [Anonymous Symbol]
    image_validate.o(.text.bootutil_img_validate) refers to fault_injection_hardening.o(.data.FIH_FAILURE) for FIH_FAILURE
    image_validate.o(.text.bootutil_img_validate) refers to image_validate.o(.text.bootutil_img_hash) for bootutil_img_hash
    image_validate.o(.text.bootutil_img_validate) refers to memcpya.o(.text) for __aeabi_memcpy
    image_validate.o(.text.bootutil_img_validate) refers to tlv.o(.text.bootutil_tlv_iter_begin) for bootutil_tlv_iter_begin
    image_validate.o(.text.bootutil_img_validate) refers to bootutil_misc.o(.text.bootutil_max_image_size) for bootutil_max_image_size
    image_validate.o(.text.bootutil_img_validate) refers to tlv.o(.text.bootutil_tlv_iter_next) for bootutil_tlv_iter_next
    image_validate.o(.text.bootutil_img_validate) refers to flash_map.o(.text.flash_area_read) for flash_area_read
    image_validate.o(.text.bootutil_img_validate) refers to bootutil_misc.o(.text.boot_fih_memequal) for boot_fih_memequal
    image_validate.o(.text.bootutil_img_validate) refers to fault_injection_hardening.o(.bss.FIH_SUCCESS) for FIH_SUCCESS
    image_validate.o(.text.bootutil_img_validate) refers to image_validate.o(.text.bootutil_find_key) for bootutil_find_key
    image_validate.o(.text.bootutil_img_validate) refers to keys.o(.rodata.bootutil_key_cnt) for bootutil_key_cnt
    image_validate.o(.text.bootutil_img_validate) refers to image_rsa.o(.text.bootutil_verify_sig) for bootutil_verify_sig
    image_validate.o(.ARM.exidx.text.bootutil_img_validate) refers to image_validate.o(.text.bootutil_img_validate) for [Anonymous Symbol]
    image_validate.o(.text.bootutil_img_hash) refers to image_validate.o(.text.flash_area_get_id) for flash_area_get_id
    image_validate.o(.text.bootutil_img_hash) refers to encrypted.o(.text.boot_enc_valid) for boot_enc_valid
    image_validate.o(.text.bootutil_img_hash) refers to image_validate.o(.text.bootutil_sha_init) for bootutil_sha_init
    image_validate.o(.text.bootutil_img_hash) refers to image_validate.o(.text.bootutil_sha_update) for bootutil_sha_update
    image_validate.o(.text.bootutil_img_hash) refers to flash_map.o(.text.flash_area_read) for flash_area_read
    image_validate.o(.text.bootutil_img_hash) refers to image_validate.o(.text.bootutil_sha_drop) for bootutil_sha_drop
    image_validate.o(.text.bootutil_img_hash) refers to encrypted.o(.text.boot_encrypt) for boot_encrypt
    image_validate.o(.text.bootutil_img_hash) refers to image_validate.o(.text.bootutil_sha_finish) for bootutil_sha_finish
    image_validate.o(.ARM.exidx.text.bootutil_img_hash) refers to image_validate.o(.text.bootutil_img_hash) for [Anonymous Symbol]
    image_validate.o(.text.bootutil_find_key) refers to keys.o(.rodata.bootutil_key_cnt) for bootutil_key_cnt
    image_validate.o(.text.bootutil_find_key) refers to keys.o(.data.bootutil_keys) for bootutil_keys
    image_validate.o(.text.bootutil_find_key) refers to image_validate.o(.text.bootutil_sha_init) for bootutil_sha_init
    image_validate.o(.text.bootutil_find_key) refers to image_validate.o(.text.bootutil_sha_update) for bootutil_sha_update
    image_validate.o(.text.bootutil_find_key) refers to image_validate.o(.text.bootutil_sha_finish) for bootutil_sha_finish
    image_validate.o(.text.bootutil_find_key) refers to memcmp.o(.text) for memcmp
    image_validate.o(.text.bootutil_find_key) refers to image_validate.o(.text.bootutil_sha_drop) for bootutil_sha_drop
    image_validate.o(.ARM.exidx.text.bootutil_find_key) refers to image_validate.o(.text.bootutil_find_key) for [Anonymous Symbol]
    image_validate.o(.ARM.exidx.text.flash_area_get_id) refers to image_validate.o(.text.flash_area_get_id) for [Anonymous Symbol]
    image_validate.o(.ARM.exidx.text.bootutil_sha_init) refers to image_validate.o(.text.bootutil_sha_init) for [Anonymous Symbol]
    image_validate.o(.ARM.exidx.text.bootutil_sha_update) refers to image_validate.o(.text.bootutil_sha_update) for [Anonymous Symbol]
    image_validate.o(.ARM.exidx.text.bootutil_sha_drop) refers to image_validate.o(.text.bootutil_sha_drop) for [Anonymous Symbol]
    image_validate.o(.ARM.exidx.text.bootutil_sha_finish) refers to image_validate.o(.text.bootutil_sha_finish) for [Anonymous Symbol]
    loader.o(.ARM.exidx.text.boot_status_reset) refers to loader.o(.text.boot_status_reset) for [Anonymous Symbol]
    loader.o(.ARM.exidx.text.boot_status_is_reset) refers to loader.o(.text.boot_status_is_reset) for [Anonymous Symbol]
    loader.o(.text.boot_write_status) refers to flash_map.o(.text.flash_area_open) for flash_area_open
    loader.o(.text.boot_write_status) refers to bootutil_misc.o(.text.boot_status_off) for boot_status_off
    loader.o(.text.boot_write_status) refers to swap_scratch.o(.text.boot_status_internal_off) for boot_status_internal_off
    loader.o(.text.boot_write_status) refers to flash_map.o(.text.flash_area_align) for flash_area_align
    loader.o(.text.boot_write_status) refers to flash_map.o(.text.flash_area_erased_val) for flash_area_erased_val
    loader.o(.text.boot_write_status) refers to flash_map.o(.text.flash_area_write) for flash_area_write
    loader.o(.text.boot_write_status) refers to flash_map.o(.text.flash_area_close) for flash_area_close
    loader.o(.ARM.exidx.text.boot_write_status) refers to loader.o(.text.boot_write_status) for [Anonymous Symbol]
    loader.o(.text.boot_erase_region) refers to flash_map.o(.text.flash_area_erase) for flash_area_erase
    loader.o(.ARM.exidx.text.boot_erase_region) refers to loader.o(.text.boot_erase_region) for [Anonymous Symbol]
    loader.o(.text.boot_copy_region) refers to loader.o(.bss.boot_copy_region.buf) for boot_copy_region.buf
    loader.o(.text.boot_copy_region) refers to flash_map.o(.text.flash_area_read) for flash_area_read
    loader.o(.text.boot_copy_region) refers to loader.o(.text.flash_area_get_id) for flash_area_get_id
    loader.o(.text.boot_copy_region) refers to loader.o(.text.boot_img_hdr) for boot_img_hdr
    loader.o(.text.boot_copy_region) refers to encrypted.o(.text.boot_encrypt) for boot_encrypt
    loader.o(.text.boot_copy_region) refers to flash_map.o(.text.flash_area_write) for flash_area_write
    loader.o(.text.boot_copy_region) refers to mbl.o(.data.p_ibl_api) for p_ibl_api
    loader.o(.ARM.exidx.text.boot_copy_region) refers to loader.o(.text.boot_copy_region) for [Anonymous Symbol]
    loader.o(.ARM.exidx.text.flash_area_get_id) refers to loader.o(.text.flash_area_get_id) for [Anonymous Symbol]
    loader.o(.ARM.exidx.text.boot_img_hdr) refers to loader.o(.text.boot_img_hdr) for [Anonymous Symbol]
    loader.o(.text.context_boot_go) refers to fault_injection_hardening.o(.data.FIH_FAILURE) for FIH_FAILURE
    loader.o(.text.context_boot_go) refers to loader.o(.bss.context_boot_go.primary_slot_sectors) for context_boot_go.primary_slot_sectors
    loader.o(.text.context_boot_go) refers to loader.o(.bss.context_boot_go.secondary_slot_sectors) for context_boot_go.secondary_slot_sectors
    loader.o(.text.context_boot_go) refers to loader.o(.bss.context_boot_go.scratch_sectors) for context_boot_go.scratch_sectors
    loader.o(.text.context_boot_go) refers to flash_map.o(.text.flash_area_id_from_multi_image_slot) for flash_area_id_from_multi_image_slot
    loader.o(.text.context_boot_go) refers to flash_map.o(.text.flash_area_open) for flash_area_open
    loader.o(.text.context_boot_go) refers to loader.o(.rodata.str1.1) for .L.str
    loader.o(.text.context_boot_go) refers to boot_hal.o(.text.__aeabi_assert) for __aeabi_assert
    loader.o(.text.context_boot_go) refers to mbl.o(.data.p_ibl_api) for p_ibl_api
    loader.o(.text.context_boot_go) refers to loader.o(.text.boot_prepare_image_for_update) for boot_prepare_image_for_update
    loader.o(.text.context_boot_go) refers to loader.o(.text.check_downgrade_prevention) for check_downgrade_prevention
    loader.o(.text.context_boot_go) refers to loader.o(.text.boot_perform_update) for boot_perform_update
    loader.o(.text.context_boot_go) refers to swap_misc.o(.text.swap_set_image_ok) for swap_set_image_ok
    loader.o(.text.context_boot_go) refers to loader.o(.text.boot_read_image_headers) for boot_read_image_headers
    loader.o(.text.context_boot_go) refers to loader.o(.text.boot_validate_slot) for boot_validate_slot
    loader.o(.text.context_boot_go) refers to fault_injection_hardening.o(.bss.FIH_SUCCESS) for FIH_SUCCESS
    loader.o(.text.context_boot_go) refers to fault_injection_hardening.o(.data.FIH_NO_BOOTABLE_IMAGE) for FIH_NO_BOOTABLE_IMAGE
    loader.o(.text.context_boot_go) refers to loader.o(.text.boot_update_hw_rollback_protection) for boot_update_hw_rollback_protection
    loader.o(.text.context_boot_go) refers to loader.o(.text.boot_add_shared_data) for boot_add_shared_data
    loader.o(.text.context_boot_go) refers to loader.o(.text.fill_rsp) for fill_rsp
    loader.o(.text.context_boot_go) refers to loader.o(.text.like_mbedtls_zeroize) for like_mbedtls_zeroize
    loader.o(.text.context_boot_go) refers to loader.o(.text.close_all_flash_areas) for close_all_flash_areas
    loader.o(.ARM.exidx.text.context_boot_go) refers to loader.o(.text.context_boot_go) for [Anonymous Symbol]
    loader.o(.text.boot_prepare_image_for_update) refers to fault_injection_hardening.o(.data.FIH_FAILURE) for FIH_FAILURE
    loader.o(.text.boot_prepare_image_for_update) refers to loader.o(.text.boot_read_sectors) for boot_read_sectors
    loader.o(.text.boot_prepare_image_for_update) refers to mbl.o(.data.p_ibl_api) for p_ibl_api
    loader.o(.text.boot_prepare_image_for_update) refers to loader.o(.rodata.str1.1) for .L.str.7
    loader.o(.text.boot_prepare_image_for_update) refers to loader.o(.text.boot_read_image_headers) for boot_read_image_headers
    loader.o(.text.boot_prepare_image_for_update) refers to swap_scratch.o(.text.boot_slots_compatible) for boot_slots_compatible
    loader.o(.text.boot_prepare_image_for_update) refers to loader.o(.text.boot_status_reset) for boot_status_reset
    loader.o(.text.boot_prepare_image_for_update) refers to swap_misc.o(.text.swap_read_status) for swap_read_status
    loader.o(.text.boot_prepare_image_for_update) refers to loader.o(.text.boot_status_is_reset) for boot_status_is_reset
    loader.o(.text.boot_prepare_image_for_update) refers to loader.o(.text.boot_complete_partial_swap) for boot_complete_partial_swap
    loader.o(.text.boot_prepare_image_for_update) refers to boot_hal.o(.text.__aeabi_assert) for __aeabi_assert
    loader.o(.text.boot_prepare_image_for_update) refers to loader.o(.text.boot_validated_swap_type) for boot_validated_swap_type
    loader.o(.text.boot_prepare_image_for_update) refers to loader.o(.text.boot_validate_slot) for boot_validate_slot
    loader.o(.text.boot_prepare_image_for_update) refers to fault_injection_hardening.o(.bss.FIH_SUCCESS) for FIH_SUCCESS
    loader.o(.ARM.exidx.text.boot_prepare_image_for_update) refers to loader.o(.text.boot_prepare_image_for_update) for [Anonymous Symbol]
    loader.o(.text.check_downgrade_prevention) refers to loader.o(.text.boot_img_hdr) for boot_img_hdr
    loader.o(.text.check_downgrade_prevention) refers to loader.o(.text.boot_version_cmp) for boot_version_cmp
    loader.o(.text.check_downgrade_prevention) refers to mbl.o(.data.p_ibl_api) for p_ibl_api
    loader.o(.text.check_downgrade_prevention) refers to loader.o(.rodata.str1.1) for .L.str.13
    loader.o(.text.check_downgrade_prevention) refers to loader.o(.text.flash_area_get_size) for flash_area_get_size
    loader.o(.text.check_downgrade_prevention) refers to flash_map.o(.text.flash_area_erase) for flash_area_erase
    loader.o(.ARM.exidx.text.check_downgrade_prevention) refers to loader.o(.text.check_downgrade_prevention) for [Anonymous Symbol]
    loader.o(.text.boot_perform_update) refers to loader.o(.text.boot_swap_image) for boot_swap_image
    loader.o(.text.boot_perform_update) refers to loader.o(.rodata.str1.1) for .L.str
    loader.o(.text.boot_perform_update) refers to boot_hal.o(.text.__aeabi_assert) for __aeabi_assert
    loader.o(.text.boot_perform_update) refers to swap_misc.o(.text.swap_set_image_ok) for swap_set_image_ok
    loader.o(.text.boot_perform_update) refers to swap_misc.o(.text.swap_set_copy_done) for swap_set_copy_done
    loader.o(.ARM.exidx.text.boot_perform_update) refers to loader.o(.text.boot_perform_update) for [Anonymous Symbol]
    loader.o(.text.boot_read_image_headers) refers to loader.o(.text.boot_img_hdr) for boot_img_hdr
    loader.o(.text.boot_read_image_headers) refers to swap_scratch.o(.text.boot_read_image_header) for boot_read_image_header
    loader.o(.ARM.exidx.text.boot_read_image_headers) refers to loader.o(.text.boot_read_image_headers) for [Anonymous Symbol]
    loader.o(.text.boot_validate_slot) refers to fault_injection_hardening.o(.data.FIH_FAILURE) for FIH_FAILURE
    loader.o(.text.boot_validate_slot) refers to flash_map.o(.text.flash_area_id_from_multi_image_slot) for flash_area_id_from_multi_image_slot
    loader.o(.text.boot_validate_slot) refers to flash_map.o(.text.flash_area_open) for flash_area_open
    loader.o(.text.boot_validate_slot) refers to loader.o(.text.boot_img_hdr) for boot_img_hdr
    loader.o(.text.boot_validate_slot) refers to loader.o(.text.boot_check_header_erased) for boot_check_header_erased
    loader.o(.text.boot_validate_slot) refers to swap_misc.o(.text.swap_erase_trailer_sectors) for swap_erase_trailer_sectors
    loader.o(.text.boot_validate_slot) refers to fault_injection_hardening.o(.data.FIH_NO_BOOTABLE_IMAGE) for FIH_NO_BOOTABLE_IMAGE
    loader.o(.text.boot_validate_slot) refers to fault_injection_hardening.o(.data.FIH_BOOT_HOOK_REGULAR) for FIH_BOOT_HOOK_REGULAR
    loader.o(.text.boot_validate_slot) refers to loader.o(.text.boot_image_check) for boot_image_check
    loader.o(.text.boot_validate_slot) refers to loader.o(.text.boot_is_header_valid) for boot_is_header_valid
    loader.o(.text.boot_validate_slot) refers to fault_injection_hardening.o(.bss.FIH_SUCCESS) for FIH_SUCCESS
    loader.o(.text.boot_validate_slot) refers to loader.o(.text.flash_area_get_size) for flash_area_get_size
    loader.o(.text.boot_validate_slot) refers to flash_map.o(.text.flash_area_erase) for flash_area_erase
    loader.o(.text.boot_validate_slot) refers to mbl.o(.data.p_ibl_api) for p_ibl_api
    loader.o(.text.boot_validate_slot) refers to loader.o(.rodata.str1.1) for .L.str.16
    loader.o(.text.boot_validate_slot) refers to flash_map.o(.text.flash_area_close) for flash_area_close
    loader.o(.ARM.exidx.text.boot_validate_slot) refers to loader.o(.text.boot_validate_slot) for [Anonymous Symbol]
    loader.o(.ARM.exidx.text.boot_update_hw_rollback_protection) refers to loader.o(.text.boot_update_hw_rollback_protection) for [Anonymous Symbol]
    loader.o(.ARM.exidx.text.boot_add_shared_data) refers to loader.o(.text.boot_add_shared_data) for [Anonymous Symbol]
    loader.o(.text.fill_rsp) refers to loader.o(.text.flash_area_get_device_id) for flash_area_get_device_id
    loader.o(.text.fill_rsp) refers to loader.o(.text.boot_img_slot_off) for boot_img_slot_off
    loader.o(.text.fill_rsp) refers to loader.o(.text.boot_img_hdr) for boot_img_hdr
    loader.o(.ARM.exidx.text.fill_rsp) refers to loader.o(.text.fill_rsp) for [Anonymous Symbol]
    loader.o(.ARM.exidx.text.like_mbedtls_zeroize) refers to loader.o(.text.like_mbedtls_zeroize) for [Anonymous Symbol]
    loader.o(.text.close_all_flash_areas) refers to flash_map.o(.text.flash_area_close) for flash_area_close
    loader.o(.ARM.exidx.text.close_all_flash_areas) refers to loader.o(.text.close_all_flash_areas) for [Anonymous Symbol]
    loader.o(.text.split_go) refers to fault_injection_hardening.o(.data.FIH_FAILURE) for FIH_FAILURE
    loader.o(.text.split_go) refers to malloc1.o(i.__malloc$1region) for malloc
    loader.o(.text.split_go) refers to loader.o(.bss.boot_data) for boot_data
    loader.o(.text.split_go) refers to flash_map.o(.text.flash_area_id_from_image_slot) for flash_area_id_from_image_slot
    loader.o(.text.split_go) refers to flash_map.o(.text.flash_area_open) for flash_area_open
    loader.o(.text.split_go) refers to loader.o(.rodata.str1.1) for .L.str
    loader.o(.text.split_go) refers to boot_hal.o(.text.__aeabi_assert) for __aeabi_assert
    loader.o(.text.split_go) refers to loader.o(.text.boot_read_sectors) for boot_read_sectors
    loader.o(.text.split_go) refers to loader.o(.text.boot_read_image_headers) for boot_read_image_headers
    loader.o(.text.split_go) refers to loader.o(.text.boot_img_hdr) for boot_img_hdr
    loader.o(.text.split_go) refers to loader.o(.text.split_image_check) for split_image_check
    loader.o(.text.split_go) refers to fault_injection_hardening.o(.bss.FIH_SUCCESS) for FIH_SUCCESS
    loader.o(.text.split_go) refers to loader.o(.text.boot_img_slot_off) for boot_img_slot_off
    loader.o(.text.split_go) refers to flash_map.o(.text.flash_area_close) for flash_area_close
    loader.o(.text.split_go) refers to malloc1.o(i.__free$1region) for free
    loader.o(.ARM.exidx.text.split_go) refers to loader.o(.text.split_go) for [Anonymous Symbol]
    loader.o(.text.boot_read_sectors) refers to loader.o(.text.boot_initialize_area) for boot_initialize_area
    loader.o(.text.boot_read_sectors) refers to loader.o(.text.boot_write_sz) for boot_write_sz
    loader.o(.ARM.exidx.text.boot_read_sectors) refers to loader.o(.text.boot_read_sectors) for [Anonymous Symbol]
    loader.o(.text.split_image_check) refers to fault_injection_hardening.o(.data.FIH_FAILURE) for FIH_FAILURE
    loader.o(.text.split_image_check) refers to loader.o(.bss.split_image_check.tmpbuf) for split_image_check.tmpbuf
    loader.o(.text.split_image_check) refers to malloc1.o(i.__malloc$1region) for malloc
    loader.o(.text.split_image_check) refers to image_validate.o(.text.bootutil_img_validate) for bootutil_img_validate
    loader.o(.text.split_image_check) refers to fault_injection_hardening.o(.bss.FIH_SUCCESS) for FIH_SUCCESS
    loader.o(.ARM.exidx.text.split_image_check) refers to loader.o(.text.split_image_check) for [Anonymous Symbol]
    loader.o(.text.boot_img_slot_off) refers to loader.o(.text.flash_area_get_off) for flash_area_get_off
    loader.o(.ARM.exidx.text.boot_img_slot_off) refers to loader.o(.text.boot_img_slot_off) for [Anonymous Symbol]
    loader.o(.text.boot_go) refers to fault_injection_hardening.o(.data.FIH_FAILURE) for FIH_FAILURE
    loader.o(.text.boot_go) refers to loader.o(.text.boot_state_clear) for boot_state_clear
    loader.o(.text.boot_go) refers to loader.o(.bss.boot_data) for boot_data
    loader.o(.text.boot_go) refers to loader.o(.text.context_boot_go) for context_boot_go
    loader.o(.ARM.exidx.text.boot_go) refers to loader.o(.text.boot_go) for [Anonymous Symbol]
    loader.o(.text.boot_state_clear) refers to memseta.o(.text) for __aeabi_memclr4
    loader.o(.text.boot_state_clear) refers to loader.o(.bss.boot_data) for boot_data
    loader.o(.ARM.exidx.text.boot_state_clear) refers to loader.o(.text.boot_state_clear) for [Anonymous Symbol]
    loader.o(.text.boot_go_for_image_id) refers to fault_injection_hardening.o(.data.FIH_FAILURE) for FIH_FAILURE
    loader.o(.text.boot_go_for_image_id) refers to loader.o(.bss.boot_data) for boot_data
    loader.o(.text.boot_go_for_image_id) refers to loader.o(.text.context_boot_go) for context_boot_go
    loader.o(.ARM.exidx.text.boot_go_for_image_id) refers to loader.o(.text.boot_go_for_image_id) for [Anonymous Symbol]
    loader.o(.text.boot_complete_partial_swap) refers to loader.o(.text.boot_swap_image) for boot_swap_image
    loader.o(.text.boot_complete_partial_swap) refers to loader.o(.rodata.str1.1) for .L.str
    loader.o(.text.boot_complete_partial_swap) refers to boot_hal.o(.text.__aeabi_assert) for __aeabi_assert
    loader.o(.text.boot_complete_partial_swap) refers to swap_misc.o(.text.swap_set_image_ok) for swap_set_image_ok
    loader.o(.text.boot_complete_partial_swap) refers to swap_misc.o(.text.swap_set_copy_done) for swap_set_copy_done
    loader.o(.text.boot_complete_partial_swap) refers to mbl.o(.data.p_ibl_api) for p_ibl_api
    loader.o(.ARM.exidx.text.boot_complete_partial_swap) refers to loader.o(.text.boot_complete_partial_swap) for [Anonymous Symbol]
    loader.o(.text.boot_validated_swap_type) refers to fault_injection_hardening.o(.data.FIH_FAILURE) for FIH_FAILURE
    loader.o(.text.boot_validated_swap_type) refers to bootutil_public.o(.text.boot_swap_type_multi) for boot_swap_type_multi
    loader.o(.text.boot_validated_swap_type) refers to loader.o(.text.boot_validate_slot) for boot_validate_slot
    loader.o(.text.boot_validated_swap_type) refers to fault_injection_hardening.o(.bss.FIH_SUCCESS) for FIH_SUCCESS
    loader.o(.text.boot_validated_swap_type) refers to fault_injection_hardening.o(.data.FIH_NO_BOOTABLE_IMAGE) for FIH_NO_BOOTABLE_IMAGE
    loader.o(.ARM.exidx.text.boot_validated_swap_type) refers to loader.o(.text.boot_validated_swap_type) for [Anonymous Symbol]
    loader.o(.text.boot_swap_image) refers to loader.o(.text.boot_status_is_reset) for boot_status_is_reset
    loader.o(.text.boot_swap_image) refers to loader.o(.text.boot_img_hdr) for boot_img_hdr
    loader.o(.text.boot_swap_image) refers to loader.o(.text.boot_read_image_size) for boot_read_image_size
    loader.o(.text.boot_swap_image) refers to loader.o(.rodata.str1.1) for .L.str
    loader.o(.text.boot_swap_image) refers to boot_hal.o(.text.__aeabi_assert) for __aeabi_assert
    loader.o(.text.boot_swap_image) refers to encrypted.o(.text.boot_enc_load) for boot_enc_load
    loader.o(.text.boot_swap_image) refers to encrypted.o(.text.boot_enc_set_key) for boot_enc_set_key
    loader.o(.text.boot_swap_image) refers to bootutil_misc.o(.text.boot_find_status) for boot_find_status
    loader.o(.text.boot_swap_image) refers to bootutil_misc.o(.text.boot_read_swap_size) for boot_read_swap_size
    loader.o(.text.boot_swap_image) refers to bootutil_misc.o(.text.boot_read_enc_key) for boot_read_enc_key
    loader.o(.text.boot_swap_image) refers to flash_map.o(.text.flash_area_close) for flash_area_close
    loader.o(.text.boot_swap_image) refers to swap_scratch.o(.text.swap_run) for swap_run
    loader.o(.text.boot_swap_image) refers to swap_scratch.o(.bss.boot_status_fails) for boot_status_fails
    loader.o(.text.boot_swap_image) refers to mbl.o(.data.p_ibl_api) for p_ibl_api
    loader.o(.ARM.exidx.text.boot_swap_image) refers to loader.o(.text.boot_swap_image) for [Anonymous Symbol]
    loader.o(.text.boot_read_image_size) refers to flash_map.o(.text.flash_area_id_from_multi_image_slot) for flash_area_id_from_multi_image_slot
    loader.o(.text.boot_read_image_size) refers to flash_map.o(.text.flash_area_open) for flash_area_open
    loader.o(.text.boot_read_image_size) refers to loader.o(.text.boot_img_hdr) for boot_img_hdr
    loader.o(.text.boot_read_image_size) refers to flash_map.o(.text.flash_area_read) for flash_area_read
    loader.o(.text.boot_read_image_size) refers to flash_map.o(.text.flash_area_close) for flash_area_close
    loader.o(.ARM.exidx.text.boot_read_image_size) refers to loader.o(.text.boot_read_image_size) for [Anonymous Symbol]
    loader.o(.ARM.exidx.text.boot_version_cmp) refers to loader.o(.text.boot_version_cmp) for [Anonymous Symbol]
    loader.o(.ARM.exidx.text.flash_area_get_size) refers to loader.o(.text.flash_area_get_size) for [Anonymous Symbol]
    loader.o(.text.boot_check_header_erased) refers to flash_map.o(.text.flash_area_id_from_multi_image_slot) for flash_area_id_from_multi_image_slot
    loader.o(.text.boot_check_header_erased) refers to flash_map.o(.text.flash_area_open) for flash_area_open
    loader.o(.text.boot_check_header_erased) refers to flash_map.o(.text.flash_area_erased_val) for flash_area_erased_val
    loader.o(.text.boot_check_header_erased) refers to flash_map.o(.text.flash_area_close) for flash_area_close
    loader.o(.text.boot_check_header_erased) refers to loader.o(.text.boot_img_hdr) for boot_img_hdr
    loader.o(.text.boot_check_header_erased) refers to loader.o(.text.boot_data_is_set_to) for boot_data_is_set_to
    loader.o(.ARM.exidx.text.boot_check_header_erased) refers to loader.o(.text.boot_check_header_erased) for [Anonymous Symbol]
    loader.o(.text.boot_image_check) refers to fault_injection_hardening.o(.data.FIH_FAILURE) for FIH_FAILURE
    loader.o(.text.boot_image_check) refers to loader.o(.text.flash_area_get_id) for flash_area_get_id
    loader.o(.text.boot_image_check) refers to encrypted.o(.text.boot_enc_load) for boot_enc_load
    loader.o(.text.boot_image_check) refers to encrypted.o(.text.boot_enc_set_key) for boot_enc_set_key
    loader.o(.text.boot_image_check) refers to loader.o(.bss.boot_image_check.tmpbuf) for boot_image_check.tmpbuf
    loader.o(.text.boot_image_check) refers to image_validate.o(.text.bootutil_img_validate) for bootutil_img_validate
    loader.o(.ARM.exidx.text.boot_image_check) refers to loader.o(.text.boot_image_check) for [Anonymous Symbol]
    loader.o(.text.boot_is_header_valid) refers to loader.o(.text.boot_u32_safe_add) for boot_u32_safe_add
    loader.o(.text.boot_is_header_valid) refers to loader.o(.text.flash_area_get_size) for flash_area_get_size
    loader.o(.ARM.exidx.text.boot_is_header_valid) refers to loader.o(.text.boot_is_header_valid) for [Anonymous Symbol]
    loader.o(.ARM.exidx.text.boot_data_is_set_to) refers to loader.o(.text.boot_data_is_set_to) for [Anonymous Symbol]
    loader.o(.ARM.exidx.text.boot_u32_safe_add) refers to loader.o(.text.boot_u32_safe_add) for [Anonymous Symbol]
    loader.o(.ARM.exidx.text.flash_area_get_device_id) refers to loader.o(.text.flash_area_get_device_id) for [Anonymous Symbol]
    loader.o(.text.boot_initialize_area) refers to flash_map.o(.text.flash_area_get_sectors) for flash_area_get_sectors
    loader.o(.ARM.exidx.text.boot_initialize_area) refers to loader.o(.text.boot_initialize_area) for [Anonymous Symbol]
    loader.o(.text.boot_write_sz) refers to flash_map.o(.text.flash_area_align) for flash_area_align
    loader.o(.ARM.exidx.text.boot_write_sz) refers to loader.o(.text.boot_write_sz) for [Anonymous Symbol]
    loader.o(.ARM.exidx.text.flash_area_get_off) refers to loader.o(.text.flash_area_get_off) for [Anonymous Symbol]
    swap_misc.o(.text.swap_erase_trailer_sectors) refers to mbl.o(.data.p_ibl_api) for p_ibl_api
    swap_misc.o(.text.swap_erase_trailer_sectors) refers to swap_misc.o(.text.flash_area_get_id) for flash_area_get_id
    swap_misc.o(.text.swap_erase_trailer_sectors) refers to swap_misc.o(.rodata.str1.1) for .L.str
    swap_misc.o(.text.swap_erase_trailer_sectors) refers to flash_map.o(.text.flash_area_id_from_multi_image_slot) for flash_area_id_from_multi_image_slot
    swap_misc.o(.text.swap_erase_trailer_sectors) refers to swap_misc.o(.text.boot_img_num_sectors) for boot_img_num_sectors
    swap_misc.o(.text.swap_erase_trailer_sectors) refers to bootutil_misc.o(.text.boot_trailer_sz) for boot_trailer_sz
    swap_misc.o(.text.swap_erase_trailer_sectors) refers to swap_misc.o(.text.boot_img_sector_size) for boot_img_sector_size
    swap_misc.o(.text.swap_erase_trailer_sectors) refers to swap_misc.o(.text.boot_img_sector_off) for boot_img_sector_off
    swap_misc.o(.text.swap_erase_trailer_sectors) refers to loader.o(.text.boot_erase_region) for boot_erase_region
    swap_misc.o(.text.swap_erase_trailer_sectors) refers to boot_hal.o(.text.__aeabi_assert) for __aeabi_assert
    swap_misc.o(.ARM.exidx.text.swap_erase_trailer_sectors) refers to swap_misc.o(.text.swap_erase_trailer_sectors) for [Anonymous Symbol]
    swap_misc.o(.ARM.exidx.text.flash_area_get_id) refers to swap_misc.o(.text.flash_area_get_id) for [Anonymous Symbol]
    swap_misc.o(.ARM.exidx.text.boot_img_num_sectors) refers to swap_misc.o(.text.boot_img_num_sectors) for [Anonymous Symbol]
    swap_misc.o(.text.boot_img_sector_size) refers to swap_misc.o(.text.flash_sector_get_size) for flash_sector_get_size
    swap_misc.o(.ARM.exidx.text.boot_img_sector_size) refers to swap_misc.o(.text.boot_img_sector_size) for [Anonymous Symbol]
    swap_misc.o(.text.boot_img_sector_off) refers to swap_misc.o(.text.flash_sector_get_off) for flash_sector_get_off
    swap_misc.o(.ARM.exidx.text.boot_img_sector_off) refers to swap_misc.o(.text.boot_img_sector_off) for [Anonymous Symbol]
    swap_misc.o(.text.swap_status_init) refers to mbl.o(.data.p_ibl_api) for p_ibl_api
    swap_misc.o(.text.swap_status_init) refers to swap_misc.o(.text.flash_area_get_id) for flash_area_get_id
    swap_misc.o(.text.swap_status_init) refers to swap_misc.o(.rodata.str1.1) for .L.str.3
    swap_misc.o(.text.swap_status_init) refers to bootutil_public.o(.text.boot_read_swap_state_by_id) for boot_read_swap_state_by_id
    swap_misc.o(.text.swap_status_init) refers to boot_hal.o(.text.__aeabi_assert) for __aeabi_assert
    swap_misc.o(.text.swap_status_init) refers to bootutil_public.o(.text.boot_write_swap_info) for boot_write_swap_info
    swap_misc.o(.text.swap_status_init) refers to bootutil_public.o(.text.boot_write_image_ok) for boot_write_image_ok
    swap_misc.o(.text.swap_status_init) refers to bootutil_misc.o(.text.boot_write_swap_size) for boot_write_swap_size
    swap_misc.o(.text.swap_status_init) refers to bootutil_misc.o(.text.boot_write_enc_key) for boot_write_enc_key
    swap_misc.o(.text.swap_status_init) refers to bootutil_public.o(.text.boot_write_magic) for boot_write_magic
    swap_misc.o(.ARM.exidx.text.swap_status_init) refers to swap_misc.o(.text.swap_status_init) for [Anonymous Symbol]
    swap_misc.o(.text.swap_read_status) refers to swap_scratch.o(.text.swap_status_source) for swap_status_source
    swap_misc.o(.text.swap_read_status) refers to swap_misc.o(.rodata.str1.1) for .L.str.4
    swap_misc.o(.text.swap_read_status) refers to boot_hal.o(.text.__aeabi_assert) for __aeabi_assert
    swap_misc.o(.text.swap_read_status) refers to flash_map.o(.text.flash_area_open) for flash_area_open
    swap_misc.o(.text.swap_read_status) refers to swap_scratch.o(.text.swap_read_status_bytes) for swap_read_status_bytes
    swap_misc.o(.text.swap_read_status) refers to bootutil_public.o(.text.boot_swap_info_off) for boot_swap_info_off
    swap_misc.o(.text.swap_read_status) refers to flash_map.o(.text.flash_area_read) for flash_area_read
    swap_misc.o(.text.swap_read_status) refers to bootutil_public.o(.text.bootutil_buffer_is_erased) for bootutil_buffer_is_erased
    swap_misc.o(.text.swap_read_status) refers to flash_map.o(.text.flash_area_close) for flash_area_close
    swap_misc.o(.ARM.exidx.text.swap_read_status) refers to swap_misc.o(.text.swap_read_status) for [Anonymous Symbol]
    swap_misc.o(.text.swap_set_copy_done) refers to flash_map.o(.text.flash_area_open) for flash_area_open
    swap_misc.o(.text.swap_set_copy_done) refers to bootutil_public.o(.text.boot_write_copy_done) for boot_write_copy_done
    swap_misc.o(.text.swap_set_copy_done) refers to flash_map.o(.text.flash_area_close) for flash_area_close
    swap_misc.o(.ARM.exidx.text.swap_set_copy_done) refers to swap_misc.o(.text.swap_set_copy_done) for [Anonymous Symbol]
    swap_misc.o(.text.swap_set_image_ok) refers to flash_map.o(.text.flash_area_open) for flash_area_open
    swap_misc.o(.text.swap_set_image_ok) refers to bootutil_public.o(.text.boot_read_swap_state) for boot_read_swap_state
    swap_misc.o(.text.swap_set_image_ok) refers to bootutil_public.o(.text.boot_write_image_ok) for boot_write_image_ok
    swap_misc.o(.text.swap_set_image_ok) refers to flash_map.o(.text.flash_area_close) for flash_area_close
    swap_misc.o(.ARM.exidx.text.swap_set_image_ok) refers to swap_misc.o(.text.swap_set_image_ok) for [Anonymous Symbol]
    swap_misc.o(.ARM.exidx.text.flash_sector_get_size) refers to swap_misc.o(.text.flash_sector_get_size) for [Anonymous Symbol]
    swap_misc.o(.ARM.exidx.text.flash_sector_get_off) refers to swap_misc.o(.text.flash_sector_get_off) for [Anonymous Symbol]
    swap_scratch.o(.text.boot_read_image_header) refers to flash_map.o(.text.flash_area_id_from_multi_image_slot) for flash_area_id_from_multi_image_slot
    swap_scratch.o(.text.boot_read_image_header) refers to flash_map.o(.text.flash_area_open) for flash_area_open
    swap_scratch.o(.text.boot_read_image_header) refers to flash_map.o(.text.flash_area_read) for flash_area_read
    swap_scratch.o(.text.boot_read_image_header) refers to flash_map.o(.text.flash_area_close) for flash_area_close
    swap_scratch.o(.ARM.exidx.text.boot_read_image_header) refers to swap_scratch.o(.text.boot_read_image_header) for [Anonymous Symbol]
    swap_scratch.o(.text.swap_read_status_bytes) refers to bootutil_misc.o(.text.boot_status_off) for boot_status_off
    swap_scratch.o(.text.swap_read_status_bytes) refers to bootutil_misc.o(.text.boot_status_entries) for boot_status_entries
    swap_scratch.o(.text.swap_read_status_bytes) refers to flash_map.o(.text.flash_area_read) for flash_area_read
    swap_scratch.o(.text.swap_read_status_bytes) refers to bootutil_public.o(.text.bootutil_buffer_is_erased) for bootutil_buffer_is_erased
    swap_scratch.o(.text.swap_read_status_bytes) refers to mbl.o(.data.p_ibl_api) for p_ibl_api
    swap_scratch.o(.text.swap_read_status_bytes) refers to swap_scratch.o(.rodata.str1.1) for .L.str
    swap_scratch.o(.ARM.exidx.text.swap_read_status_bytes) refers to swap_scratch.o(.text.swap_read_status_bytes) for [Anonymous Symbol]
    swap_scratch.o(.ARM.exidx.text.boot_status_internal_off) refers to swap_scratch.o(.text.boot_status_internal_off) for [Anonymous Symbol]
    swap_scratch.o(.text.boot_slots_compatible) refers to swap_scratch.o(.text.boot_img_num_sectors) for boot_img_num_sectors
    swap_scratch.o(.text.boot_slots_compatible) refers to mbl.o(.data.p_ibl_api) for p_ibl_api
    swap_scratch.o(.text.boot_slots_compatible) refers to swap_scratch.o(.rodata.str1.1) for .L.str.1
    swap_scratch.o(.text.boot_slots_compatible) refers to swap_scratch.o(.text.boot_scratch_area_size) for boot_scratch_area_size
    swap_scratch.o(.text.boot_slots_compatible) refers to swap_scratch.o(.text.boot_img_sector_size) for boot_img_sector_size
    swap_scratch.o(.ARM.exidx.text.boot_slots_compatible) refers to swap_scratch.o(.text.boot_slots_compatible) for [Anonymous Symbol]
    swap_scratch.o(.ARM.exidx.text.boot_img_num_sectors) refers to swap_scratch.o(.text.boot_img_num_sectors) for [Anonymous Symbol]
    swap_scratch.o(.text.boot_scratch_area_size) refers to swap_scratch.o(.text.flash_area_get_size) for flash_area_get_size
    swap_scratch.o(.ARM.exidx.text.boot_scratch_area_size) refers to swap_scratch.o(.text.boot_scratch_area_size) for [Anonymous Symbol]
    swap_scratch.o(.text.boot_img_sector_size) refers to swap_scratch.o(.text.flash_sector_get_size) for flash_sector_get_size
    swap_scratch.o(.ARM.exidx.text.boot_img_sector_size) refers to swap_scratch.o(.text.boot_img_sector_size) for [Anonymous Symbol]
    swap_scratch.o(.text.swap_status_source) refers to bootutil_public.o(.text.boot_read_swap_state_by_id) for boot_read_swap_state_by_id
    swap_scratch.o(.text.swap_status_source) refers to swap_scratch.o(.rodata.str1.1) for .L.str.5
    swap_scratch.o(.text.swap_status_source) refers to boot_hal.o(.text.__aeabi_assert) for __aeabi_assert
    swap_scratch.o(.text.swap_status_source) refers to mbl.o(.data.p_ibl_api) for p_ibl_api
    swap_scratch.o(.text.swap_status_source) refers to swap_scratch.o(.rodata.boot_status_tables) for boot_status_tables
    swap_scratch.o(.text.swap_status_source) refers to bootutil_public.o(.text.boot_magic_compatible_check) for boot_magic_compatible_check
    swap_scratch.o(.ARM.exidx.text.swap_status_source) refers to swap_scratch.o(.text.swap_status_source) for [Anonymous Symbol]
    swap_scratch.o(.text.swap_run) refers to mbl.o(.data.p_ibl_api) for p_ibl_api
    swap_scratch.o(.text.swap_run) refers to swap_scratch.o(.rodata.str1.1) for .L.str.19
    swap_scratch.o(.text.swap_run) refers to swap_scratch.o(.text.boot_img_sector_size) for boot_img_sector_size
    swap_scratch.o(.text.swap_run) refers to swap_scratch.o(.text.boot_copy_sz) for boot_copy_sz
    swap_scratch.o(.text.swap_run) refers to swap_scratch.o(.text.boot_swap_sectors) for boot_swap_sectors
    swap_scratch.o(.ARM.exidx.text.swap_run) refers to swap_scratch.o(.text.swap_run) for [Anonymous Symbol]
    swap_scratch.o(.text.boot_copy_sz) refers to swap_scratch.o(.text.boot_scratch_area_size) for boot_scratch_area_size
    swap_scratch.o(.text.boot_copy_sz) refers to swap_scratch.o(.text.boot_img_sector_size) for boot_img_sector_size
    swap_scratch.o(.ARM.exidx.text.boot_copy_sz) refers to swap_scratch.o(.text.boot_copy_sz) for [Anonymous Symbol]
    swap_scratch.o(.text.boot_swap_sectors) refers to swap_scratch.o(.text.boot_img_sector_off) for boot_img_sector_off
    swap_scratch.o(.text.boot_swap_sectors) refers to bootutil_misc.o(.text.boot_trailer_sz) for boot_trailer_sz
    swap_scratch.o(.text.boot_swap_sectors) refers to swap_scratch.o(.text.boot_img_num_sectors) for boot_img_num_sectors
    swap_scratch.o(.text.boot_swap_sectors) refers to swap_scratch.o(.text.boot_img_sector_size) for boot_img_sector_size
    swap_scratch.o(.text.boot_swap_sectors) refers to flash_map.o(.text.flash_area_open) for flash_area_open
    swap_scratch.o(.text.boot_swap_sectors) refers to swap_scratch.o(.rodata.str1.1) for .L.str.5
    swap_scratch.o(.text.boot_swap_sectors) refers to boot_hal.o(.text.__aeabi_assert) for __aeabi_assert
    swap_scratch.o(.text.boot_swap_sectors) refers to mbl.o(.data.p_ibl_api) for p_ibl_api
    swap_scratch.o(.text.boot_swap_sectors) refers to swap_scratch.o(.text.flash_area_get_size) for flash_area_get_size
    swap_scratch.o(.text.boot_swap_sectors) refers to loader.o(.text.boot_erase_region) for boot_erase_region
    swap_scratch.o(.text.boot_swap_sectors) refers to swap_misc.o(.text.swap_status_init) for swap_status_init
    swap_scratch.o(.text.boot_swap_sectors) refers to swap_misc.o(.text.swap_erase_trailer_sectors) for swap_erase_trailer_sectors
    swap_scratch.o(.text.boot_swap_sectors) refers to loader.o(.text.boot_copy_region) for boot_copy_region
    swap_scratch.o(.text.boot_swap_sectors) refers to loader.o(.text.boot_write_status) for boot_write_status
    swap_scratch.o(.text.boot_swap_sectors) refers to swap_scratch.o(.bss.boot_status_fails) for boot_status_fails
    swap_scratch.o(.text.boot_swap_sectors) refers to bootutil_misc.o(.text.boot_status_off) for boot_status_off
    swap_scratch.o(.text.boot_swap_sectors) refers to bootutil_public.o(.text.boot_read_swap_state) for boot_read_swap_state
    swap_scratch.o(.text.boot_swap_sectors) refers to bootutil_public.o(.text.boot_write_image_ok) for boot_write_image_ok
    swap_scratch.o(.text.boot_swap_sectors) refers to bootutil_public.o(.text.boot_write_swap_info) for boot_write_swap_info
    swap_scratch.o(.text.boot_swap_sectors) refers to bootutil_misc.o(.text.boot_write_swap_size) for boot_write_swap_size
    swap_scratch.o(.text.boot_swap_sectors) refers to bootutil_misc.o(.text.boot_write_enc_key) for boot_write_enc_key
    swap_scratch.o(.text.boot_swap_sectors) refers to bootutil_public.o(.text.boot_write_magic) for boot_write_magic
    swap_scratch.o(.text.boot_swap_sectors) refers to flash_map.o(.text.flash_area_close) for flash_area_close
    swap_scratch.o(.ARM.exidx.text.boot_swap_sectors) refers to swap_scratch.o(.text.boot_swap_sectors) for [Anonymous Symbol]
    swap_scratch.o(.text.app_max_size) refers to swap_scratch.o(.text.boot_img_num_sectors) for boot_img_num_sectors
    swap_scratch.o(.text.app_max_size) refers to swap_scratch.o(.text.boot_scratch_area_size) for boot_scratch_area_size
    swap_scratch.o(.text.app_max_size) refers to swap_scratch.o(.text.boot_img_sector_size) for boot_img_sector_size
    swap_scratch.o(.text.app_max_size) refers to mbl.o(.data.p_ibl_api) for p_ibl_api
    swap_scratch.o(.text.app_max_size) refers to swap_scratch.o(.rodata.str1.1) for .L.str.2
    swap_scratch.o(.ARM.exidx.text.app_max_size) refers to swap_scratch.o(.text.app_max_size) for [Anonymous Symbol]
    swap_scratch.o(.ARM.exidx.text.flash_area_get_size) refers to swap_scratch.o(.text.flash_area_get_size) for [Anonymous Symbol]
    swap_scratch.o(.ARM.exidx.text.flash_sector_get_size) refers to swap_scratch.o(.text.flash_sector_get_size) for [Anonymous Symbol]
    swap_scratch.o(.text.boot_img_sector_off) refers to swap_scratch.o(.text.flash_sector_get_off) for flash_sector_get_off
    swap_scratch.o(.ARM.exidx.text.boot_img_sector_off) refers to swap_scratch.o(.text.boot_img_sector_off) for [Anonymous Symbol]
    swap_scratch.o(.ARM.exidx.text.flash_sector_get_off) refers to swap_scratch.o(.text.flash_sector_get_off) for [Anonymous Symbol]
    tlv.o(.text.bootutil_tlv_iter_begin) refers to flash_map.o(.text.flash_area_read) for flash_area_read
    tlv.o(.ARM.exidx.text.bootutil_tlv_iter_begin) refers to tlv.o(.text.bootutil_tlv_iter_begin) for [Anonymous Symbol]
    tlv.o(.text.bootutil_tlv_iter_next) refers to flash_map.o(.text.flash_area_read) for flash_area_read
    tlv.o(.ARM.exidx.text.bootutil_tlv_iter_next) refers to tlv.o(.text.bootutil_tlv_iter_next) for [Anonymous Symbol]
    startup_gd32f5xx_mbl.o(RESET) refers to startup_gd32f5xx_mbl.o(.text) for Reset_Handler
    startup_gd32f5xx_mbl.o(RESET) refers to mbl_gd32f5xx_it.o(.text.NMI_Handler) for NMI_Handler
    startup_gd32f5xx_mbl.o(RESET) refers to mbl_gd32f5xx_it.o(.text.HardFault_Handler) for HardFault_Handler
    startup_gd32f5xx_mbl.o(RESET) refers to mbl_gd32f5xx_it.o(.text.MemManage_Handler) for MemManage_Handler
    startup_gd32f5xx_mbl.o(RESET) refers to mbl_gd32f5xx_it.o(.text.BusFault_Handler) for BusFault_Handler
    startup_gd32f5xx_mbl.o(RESET) refers to mbl_gd32f5xx_it.o(.text.UsageFault_Handler) for UsageFault_Handler
    startup_gd32f5xx_mbl.o(RESET) refers to mbl_gd32f5xx_it.o(.text.SVC_Handler) for SVC_Handler
    startup_gd32f5xx_mbl.o(RESET) refers to mbl_gd32f5xx_it.o(.text.DebugMon_Handler) for DebugMon_Handler
    startup_gd32f5xx_mbl.o(RESET) refers to mbl_gd32f5xx_it.o(.text.PendSV_Handler) for PendSV_Handler
    startup_gd32f5xx_mbl.o(RESET) refers to mbl_gd32f5xx_it.o(.text.SysTick_Handler) for SysTick_Handler
    startup_gd32f5xx_mbl.o(RESET) refers to mbl_gd32f5xx_it.o(.text.UART6_IRQHandler) for UART6_IRQHandler
    startup_gd32f5xx_mbl.o(.text) refers to system_gd32f5xx.o(.text.SystemInit) for SystemInit
    startup_gd32f5xx_mbl.o(.text) refers to entry.o(.ARM.Collect$$$$00000000) for __main
    system_gd32f5xx.o(.text.SystemInit) refers to system_gd32f5xx.o(.text.system_clock_config) for system_clock_config
    system_gd32f5xx.o(.ARM.exidx.text.SystemInit) refers to system_gd32f5xx.o(.text.SystemInit) for [Anonymous Symbol]
    system_gd32f5xx.o(.text.system_clock_config) refers to system_gd32f5xx.o(.text.system_clock_200m_25m_hxtal) for system_clock_200m_25m_hxtal
    system_gd32f5xx.o(.ARM.exidx.text.system_clock_config) refers to system_gd32f5xx.o(.text.system_clock_config) for [Anonymous Symbol]
    system_gd32f5xx.o(.text.SystemCoreClockUpdate) refers to system_gd32f5xx.o(.data.SystemCoreClock) for SystemCoreClock
    system_gd32f5xx.o(.ARM.exidx.text.SystemCoreClockUpdate) refers to system_gd32f5xx.o(.text.SystemCoreClockUpdate) for [Anonymous Symbol]
    system_gd32f5xx.o(.ARM.exidx.text.system_clock_200m_25m_hxtal) refers to system_gd32f5xx.o(.text.system_clock_200m_25m_hxtal) for [Anonymous Symbol]
    gd32f5xx_misc.o(.ARM.exidx.text.nvic_priority_group_set) refers to gd32f5xx_misc.o(.text.nvic_priority_group_set) for [Anonymous Symbol]
    gd32f5xx_misc.o(.text.nvic_irq_enable) refers to gd32f5xx_misc.o(.text.nvic_priority_group_set) for nvic_priority_group_set
    gd32f5xx_misc.o(.ARM.exidx.text.nvic_irq_enable) refers to gd32f5xx_misc.o(.text.nvic_irq_enable) for [Anonymous Symbol]
    gd32f5xx_misc.o(.ARM.exidx.text.nvic_irq_disable) refers to gd32f5xx_misc.o(.text.nvic_irq_disable) for [Anonymous Symbol]
    gd32f5xx_misc.o(.text.nvic_system_reset) refers to gd32f5xx_misc.o(.text.__NVIC_SystemReset) for __NVIC_SystemReset
    gd32f5xx_misc.o(.ARM.exidx.text.nvic_system_reset) refers to gd32f5xx_misc.o(.text.nvic_system_reset) for [Anonymous Symbol]
    gd32f5xx_misc.o(.ARM.exidx.text.__NVIC_SystemReset) refers to gd32f5xx_misc.o(.text.__NVIC_SystemReset) for [Anonymous Symbol]
    gd32f5xx_misc.o(.ARM.exidx.text.nvic_vector_table_set) refers to gd32f5xx_misc.o(.text.nvic_vector_table_set) for [Anonymous Symbol]
    gd32f5xx_misc.o(.ARM.exidx.text.system_lowpower_set) refers to gd32f5xx_misc.o(.text.system_lowpower_set) for [Anonymous Symbol]
    gd32f5xx_misc.o(.ARM.exidx.text.system_lowpower_reset) refers to gd32f5xx_misc.o(.text.system_lowpower_reset) for [Anonymous Symbol]
    gd32f5xx_misc.o(.ARM.exidx.text.systick_clksource_set) refers to gd32f5xx_misc.o(.text.systick_clksource_set) for [Anonymous Symbol]
    gd32f5xx_rcu.o(.text.rcu_deinit) refers to gd32f5xx_rcu.o(.text.rcu_osci_stab_wait) for rcu_osci_stab_wait
    gd32f5xx_rcu.o(.ARM.exidx.text.rcu_deinit) refers to gd32f5xx_rcu.o(.text.rcu_deinit) for [Anonymous Symbol]
    gd32f5xx_rcu.o(.text.rcu_osci_stab_wait) refers to gd32f5xx_rcu.o(.text.rcu_flag_get) for rcu_flag_get
    gd32f5xx_rcu.o(.ARM.exidx.text.rcu_osci_stab_wait) refers to gd32f5xx_rcu.o(.text.rcu_osci_stab_wait) for [Anonymous Symbol]
    gd32f5xx_rcu.o(.ARM.exidx.text.rcu_periph_clock_enable) refers to gd32f5xx_rcu.o(.text.rcu_periph_clock_enable) for [Anonymous Symbol]
    gd32f5xx_rcu.o(.ARM.exidx.text.rcu_periph_clock_disable) refers to gd32f5xx_rcu.o(.text.rcu_periph_clock_disable) for [Anonymous Symbol]
    gd32f5xx_rcu.o(.ARM.exidx.text.rcu_periph_clock_sleep_enable) refers to gd32f5xx_rcu.o(.text.rcu_periph_clock_sleep_enable) for [Anonymous Symbol]
    gd32f5xx_rcu.o(.ARM.exidx.text.rcu_periph_clock_sleep_disable) refers to gd32f5xx_rcu.o(.text.rcu_periph_clock_sleep_disable) for [Anonymous Symbol]
    gd32f5xx_rcu.o(.ARM.exidx.text.rcu_periph_reset_enable) refers to gd32f5xx_rcu.o(.text.rcu_periph_reset_enable) for [Anonymous Symbol]
    gd32f5xx_rcu.o(.ARM.exidx.text.rcu_periph_reset_disable) refers to gd32f5xx_rcu.o(.text.rcu_periph_reset_disable) for [Anonymous Symbol]
    gd32f5xx_rcu.o(.ARM.exidx.text.rcu_bkp_reset_enable) refers to gd32f5xx_rcu.o(.text.rcu_bkp_reset_enable) for [Anonymous Symbol]
    gd32f5xx_rcu.o(.ARM.exidx.text.rcu_bkp_reset_disable) refers to gd32f5xx_rcu.o(.text.rcu_bkp_reset_disable) for [Anonymous Symbol]
    gd32f5xx_rcu.o(.ARM.exidx.text.rcu_system_clock_source_config) refers to gd32f5xx_rcu.o(.text.rcu_system_clock_source_config) for [Anonymous Symbol]
    gd32f5xx_rcu.o(.ARM.exidx.text.rcu_system_clock_source_get) refers to gd32f5xx_rcu.o(.text.rcu_system_clock_source_get) for [Anonymous Symbol]
    gd32f5xx_rcu.o(.ARM.exidx.text.rcu_ahb_clock_config) refers to gd32f5xx_rcu.o(.text.rcu_ahb_clock_config) for [Anonymous Symbol]
    gd32f5xx_rcu.o(.ARM.exidx.text.rcu_apb1_clock_config) refers to gd32f5xx_rcu.o(.text.rcu_apb1_clock_config) for [Anonymous Symbol]
    gd32f5xx_rcu.o(.ARM.exidx.text.rcu_apb2_clock_config) refers to gd32f5xx_rcu.o(.text.rcu_apb2_clock_config) for [Anonymous Symbol]
    gd32f5xx_rcu.o(.ARM.exidx.text.rcu_ckout0_config) refers to gd32f5xx_rcu.o(.text.rcu_ckout0_config) for [Anonymous Symbol]
    gd32f5xx_rcu.o(.ARM.exidx.text.rcu_ckout1_config) refers to gd32f5xx_rcu.o(.text.rcu_ckout1_config) for [Anonymous Symbol]
    gd32f5xx_rcu.o(.ARM.exidx.text.rcu_pll_config) refers to gd32f5xx_rcu.o(.text.rcu_pll_config) for [Anonymous Symbol]
    gd32f5xx_rcu.o(.ARM.exidx.text.rcu_plli2s_q_config) refers to gd32f5xx_rcu.o(.text.rcu_plli2s_q_config) for [Anonymous Symbol]
    gd32f5xx_rcu.o(.ARM.exidx.text.rcu_plli2s_r_config) refers to gd32f5xx_rcu.o(.text.rcu_plli2s_r_config) for [Anonymous Symbol]
    gd32f5xx_rcu.o(.ARM.exidx.text.rcu_pllsai_p_config) refers to gd32f5xx_rcu.o(.text.rcu_pllsai_p_config) for [Anonymous Symbol]
    gd32f5xx_rcu.o(.ARM.exidx.text.rcu_pllsai_q_config) refers to gd32f5xx_rcu.o(.text.rcu_pllsai_q_config) for [Anonymous Symbol]
    gd32f5xx_rcu.o(.ARM.exidx.text.rcu_pllsai_r_config) refers to gd32f5xx_rcu.o(.text.rcu_pllsai_r_config) for [Anonymous Symbol]
    gd32f5xx_rcu.o(.ARM.exidx.text.rcu_rtc_clock_config) refers to gd32f5xx_rcu.o(.text.rcu_rtc_clock_config) for [Anonymous Symbol]
    gd32f5xx_rcu.o(.ARM.exidx.text.rcu_rtc_div_config) refers to gd32f5xx_rcu.o(.text.rcu_rtc_div_config) for [Anonymous Symbol]
    gd32f5xx_rcu.o(.ARM.exidx.text.rcu_i2s_clock_config) refers to gd32f5xx_rcu.o(.text.rcu_i2s_clock_config) for [Anonymous Symbol]
    gd32f5xx_rcu.o(.ARM.exidx.text.rcu_i2c_clock_config) refers to gd32f5xx_rcu.o(.text.rcu_i2c_clock_config) for [Anonymous Symbol]
    gd32f5xx_rcu.o(.ARM.exidx.text.rcu_sai_clock_config) refers to gd32f5xx_rcu.o(.text.rcu_sai_clock_config) for [Anonymous Symbol]
    gd32f5xx_rcu.o(.ARM.exidx.text.rcu_ck48m_clock_config) refers to gd32f5xx_rcu.o(.text.rcu_ck48m_clock_config) for [Anonymous Symbol]
    gd32f5xx_rcu.o(.ARM.exidx.text.rcu_pll48m_clock_config) refers to gd32f5xx_rcu.o(.text.rcu_pll48m_clock_config) for [Anonymous Symbol]
    gd32f5xx_rcu.o(.ARM.exidx.text.rcu_timer_clock_prescaler_config) refers to gd32f5xx_rcu.o(.text.rcu_timer_clock_prescaler_config) for [Anonymous Symbol]
    gd32f5xx_rcu.o(.ARM.exidx.text.rcu_tli_clock_div_config) refers to gd32f5xx_rcu.o(.text.rcu_tli_clock_div_config) for [Anonymous Symbol]
    gd32f5xx_rcu.o(.ARM.exidx.text.rcu_lxtal_drive_capability_config) refers to gd32f5xx_rcu.o(.text.rcu_lxtal_drive_capability_config) for [Anonymous Symbol]
    gd32f5xx_rcu.o(.ARM.exidx.text.rcu_flag_get) refers to gd32f5xx_rcu.o(.text.rcu_flag_get) for [Anonymous Symbol]
    gd32f5xx_rcu.o(.ARM.exidx.text.rcu_osci_on) refers to gd32f5xx_rcu.o(.text.rcu_osci_on) for [Anonymous Symbol]
    gd32f5xx_rcu.o(.ARM.exidx.text.rcu_osci_off) refers to gd32f5xx_rcu.o(.text.rcu_osci_off) for [Anonymous Symbol]
    gd32f5xx_rcu.o(.ARM.exidx.text.rcu_osci_bypass_mode_enable) refers to gd32f5xx_rcu.o(.text.rcu_osci_bypass_mode_enable) for [Anonymous Symbol]
    gd32f5xx_rcu.o(.ARM.exidx.text.rcu_osci_bypass_mode_disable) refers to gd32f5xx_rcu.o(.text.rcu_osci_bypass_mode_disable) for [Anonymous Symbol]
    gd32f5xx_rcu.o(.ARM.exidx.text.rcu_irc16m_adjust_value_set) refers to gd32f5xx_rcu.o(.text.rcu_irc16m_adjust_value_set) for [Anonymous Symbol]
    gd32f5xx_rcu.o(.ARM.exidx.text.rcu_spread_spectrum_config) refers to gd32f5xx_rcu.o(.text.rcu_spread_spectrum_config) for [Anonymous Symbol]
    gd32f5xx_rcu.o(.ARM.exidx.text.rcu_spread_spectrum_enable) refers to gd32f5xx_rcu.o(.text.rcu_spread_spectrum_enable) for [Anonymous Symbol]
    gd32f5xx_rcu.o(.ARM.exidx.text.rcu_spread_spectrum_disable) refers to gd32f5xx_rcu.o(.text.rcu_spread_spectrum_disable) for [Anonymous Symbol]
    gd32f5xx_rcu.o(.ARM.exidx.text.rcu_hxtal_clock_monitor_enable) refers to gd32f5xx_rcu.o(.text.rcu_hxtal_clock_monitor_enable) for [Anonymous Symbol]
    gd32f5xx_rcu.o(.ARM.exidx.text.rcu_hxtal_clock_monitor_disable) refers to gd32f5xx_rcu.o(.text.rcu_hxtal_clock_monitor_disable) for [Anonymous Symbol]
    gd32f5xx_rcu.o(.ARM.exidx.text.rcu_voltage_key_unlock) refers to gd32f5xx_rcu.o(.text.rcu_voltage_key_unlock) for [Anonymous Symbol]
    gd32f5xx_rcu.o(.ARM.exidx.text.rcu_deepsleep_voltage_set) refers to gd32f5xx_rcu.o(.text.rcu_deepsleep_voltage_set) for [Anonymous Symbol]
    gd32f5xx_rcu.o(.ARM.exidx.text.rcu_clock_freq_get) refers to gd32f5xx_rcu.o(.text.rcu_clock_freq_get) for [Anonymous Symbol]
    gd32f5xx_rcu.o(.ARM.exidx.text.rcu_all_reset_flag_clear) refers to gd32f5xx_rcu.o(.text.rcu_all_reset_flag_clear) for [Anonymous Symbol]
    gd32f5xx_rcu.o(.ARM.exidx.text.rcu_interrupt_flag_get) refers to gd32f5xx_rcu.o(.text.rcu_interrupt_flag_get) for [Anonymous Symbol]
    gd32f5xx_rcu.o(.ARM.exidx.text.rcu_interrupt_flag_clear) refers to gd32f5xx_rcu.o(.text.rcu_interrupt_flag_clear) for [Anonymous Symbol]
    gd32f5xx_rcu.o(.ARM.exidx.text.rcu_interrupt_enable) refers to gd32f5xx_rcu.o(.text.rcu_interrupt_enable) for [Anonymous Symbol]
    gd32f5xx_rcu.o(.ARM.exidx.text.rcu_interrupt_disable) refers to gd32f5xx_rcu.o(.text.rcu_interrupt_disable) for [Anonymous Symbol]
    gd32f5xx_usart.o(.text.usart_deinit) refers to gd32f5xx_rcu.o(.text.rcu_periph_reset_enable) for rcu_periph_reset_enable
    gd32f5xx_usart.o(.text.usart_deinit) refers to gd32f5xx_rcu.o(.text.rcu_periph_reset_disable) for rcu_periph_reset_disable
    gd32f5xx_usart.o(.ARM.exidx.text.usart_deinit) refers to gd32f5xx_usart.o(.text.usart_deinit) for [Anonymous Symbol]
    gd32f5xx_usart.o(.text.usart_baudrate_set) refers to gd32f5xx_rcu.o(.text.rcu_clock_freq_get) for rcu_clock_freq_get
    gd32f5xx_usart.o(.ARM.exidx.text.usart_baudrate_set) refers to gd32f5xx_usart.o(.text.usart_baudrate_set) for [Anonymous Symbol]
    gd32f5xx_usart.o(.ARM.exidx.text.usart_parity_config) refers to gd32f5xx_usart.o(.text.usart_parity_config) for [Anonymous Symbol]
    gd32f5xx_usart.o(.ARM.exidx.text.usart_word_length_set) refers to gd32f5xx_usart.o(.text.usart_word_length_set) for [Anonymous Symbol]
    gd32f5xx_usart.o(.ARM.exidx.text.usart_stop_bit_set) refers to gd32f5xx_usart.o(.text.usart_stop_bit_set) for [Anonymous Symbol]
    gd32f5xx_usart.o(.ARM.exidx.text.usart_enable) refers to gd32f5xx_usart.o(.text.usart_enable) for [Anonymous Symbol]
    gd32f5xx_usart.o(.ARM.exidx.text.usart_disable) refers to gd32f5xx_usart.o(.text.usart_disable) for [Anonymous Symbol]
    gd32f5xx_usart.o(.ARM.exidx.text.usart_transmit_config) refers to gd32f5xx_usart.o(.text.usart_transmit_config) for [Anonymous Symbol]
    gd32f5xx_usart.o(.ARM.exidx.text.usart_receive_config) refers to gd32f5xx_usart.o(.text.usart_receive_config) for [Anonymous Symbol]
    gd32f5xx_usart.o(.ARM.exidx.text.usart_data_first_config) refers to gd32f5xx_usart.o(.text.usart_data_first_config) for [Anonymous Symbol]
    gd32f5xx_usart.o(.ARM.exidx.text.usart_invert_config) refers to gd32f5xx_usart.o(.text.usart_invert_config) for [Anonymous Symbol]
    gd32f5xx_usart.o(.ARM.exidx.text.usart_oversample_config) refers to gd32f5xx_usart.o(.text.usart_oversample_config) for [Anonymous Symbol]
    gd32f5xx_usart.o(.ARM.exidx.text.usart_sample_bit_config) refers to gd32f5xx_usart.o(.text.usart_sample_bit_config) for [Anonymous Symbol]
    gd32f5xx_usart.o(.ARM.exidx.text.usart_receiver_timeout_enable) refers to gd32f5xx_usart.o(.text.usart_receiver_timeout_enable) for [Anonymous Symbol]
    gd32f5xx_usart.o(.ARM.exidx.text.usart_receiver_timeout_disable) refers to gd32f5xx_usart.o(.text.usart_receiver_timeout_disable) for [Anonymous Symbol]
    gd32f5xx_usart.o(.ARM.exidx.text.usart_receiver_timeout_threshold_config) refers to gd32f5xx_usart.o(.text.usart_receiver_timeout_threshold_config) for [Anonymous Symbol]
    gd32f5xx_usart.o(.ARM.exidx.text.usart_data_transmit) refers to gd32f5xx_usart.o(.text.usart_data_transmit) for [Anonymous Symbol]
    gd32f5xx_usart.o(.ARM.exidx.text.usart_data_receive) refers to gd32f5xx_usart.o(.text.usart_data_receive) for [Anonymous Symbol]
    gd32f5xx_usart.o(.ARM.exidx.text.usart_address_config) refers to gd32f5xx_usart.o(.text.usart_address_config) for [Anonymous Symbol]
    gd32f5xx_usart.o(.ARM.exidx.text.usart_mute_mode_enable) refers to gd32f5xx_usart.o(.text.usart_mute_mode_enable) for [Anonymous Symbol]
    gd32f5xx_usart.o(.ARM.exidx.text.usart_mute_mode_disable) refers to gd32f5xx_usart.o(.text.usart_mute_mode_disable) for [Anonymous Symbol]
    gd32f5xx_usart.o(.ARM.exidx.text.usart_mute_mode_wakeup_config) refers to gd32f5xx_usart.o(.text.usart_mute_mode_wakeup_config) for [Anonymous Symbol]
    gd32f5xx_usart.o(.ARM.exidx.text.usart_lin_mode_enable) refers to gd32f5xx_usart.o(.text.usart_lin_mode_enable) for [Anonymous Symbol]
    gd32f5xx_usart.o(.ARM.exidx.text.usart_lin_mode_disable) refers to gd32f5xx_usart.o(.text.usart_lin_mode_disable) for [Anonymous Symbol]
    gd32f5xx_usart.o(.ARM.exidx.text.usart_lin_break_detection_length_config) refers to gd32f5xx_usart.o(.text.usart_lin_break_detection_length_config) for [Anonymous Symbol]
    gd32f5xx_usart.o(.ARM.exidx.text.usart_send_break) refers to gd32f5xx_usart.o(.text.usart_send_break) for [Anonymous Symbol]
    gd32f5xx_usart.o(.ARM.exidx.text.usart_halfduplex_enable) refers to gd32f5xx_usart.o(.text.usart_halfduplex_enable) for [Anonymous Symbol]
    gd32f5xx_usart.o(.ARM.exidx.text.usart_halfduplex_disable) refers to gd32f5xx_usart.o(.text.usart_halfduplex_disable) for [Anonymous Symbol]
    gd32f5xx_usart.o(.ARM.exidx.text.usart_synchronous_clock_enable) refers to gd32f5xx_usart.o(.text.usart_synchronous_clock_enable) for [Anonymous Symbol]
    gd32f5xx_usart.o(.ARM.exidx.text.usart_synchronous_clock_disable) refers to gd32f5xx_usart.o(.text.usart_synchronous_clock_disable) for [Anonymous Symbol]
    gd32f5xx_usart.o(.ARM.exidx.text.usart_synchronous_clock_config) refers to gd32f5xx_usart.o(.text.usart_synchronous_clock_config) for [Anonymous Symbol]
    gd32f5xx_usart.o(.ARM.exidx.text.usart_guard_time_config) refers to gd32f5xx_usart.o(.text.usart_guard_time_config) for [Anonymous Symbol]
    gd32f5xx_usart.o(.ARM.exidx.text.usart_smartcard_mode_enable) refers to gd32f5xx_usart.o(.text.usart_smartcard_mode_enable) for [Anonymous Symbol]
    gd32f5xx_usart.o(.ARM.exidx.text.usart_smartcard_mode_disable) refers to gd32f5xx_usart.o(.text.usart_smartcard_mode_disable) for [Anonymous Symbol]
    gd32f5xx_usart.o(.ARM.exidx.text.usart_smartcard_mode_nack_enable) refers to gd32f5xx_usart.o(.text.usart_smartcard_mode_nack_enable) for [Anonymous Symbol]
    gd32f5xx_usart.o(.ARM.exidx.text.usart_smartcard_mode_nack_disable) refers to gd32f5xx_usart.o(.text.usart_smartcard_mode_nack_disable) for [Anonymous Symbol]
    gd32f5xx_usart.o(.ARM.exidx.text.usart_smartcard_autoretry_config) refers to gd32f5xx_usart.o(.text.usart_smartcard_autoretry_config) for [Anonymous Symbol]
    gd32f5xx_usart.o(.ARM.exidx.text.usart_block_length_config) refers to gd32f5xx_usart.o(.text.usart_block_length_config) for [Anonymous Symbol]
    gd32f5xx_usart.o(.ARM.exidx.text.usart_irda_mode_enable) refers to gd32f5xx_usart.o(.text.usart_irda_mode_enable) for [Anonymous Symbol]
    gd32f5xx_usart.o(.ARM.exidx.text.usart_irda_mode_disable) refers to gd32f5xx_usart.o(.text.usart_irda_mode_disable) for [Anonymous Symbol]
    gd32f5xx_usart.o(.ARM.exidx.text.usart_prescaler_config) refers to gd32f5xx_usart.o(.text.usart_prescaler_config) for [Anonymous Symbol]
    gd32f5xx_usart.o(.ARM.exidx.text.usart_irda_lowpower_config) refers to gd32f5xx_usart.o(.text.usart_irda_lowpower_config) for [Anonymous Symbol]
    gd32f5xx_usart.o(.ARM.exidx.text.usart_hardware_flow_rts_config) refers to gd32f5xx_usart.o(.text.usart_hardware_flow_rts_config) for [Anonymous Symbol]
    gd32f5xx_usart.o(.ARM.exidx.text.usart_hardware_flow_cts_config) refers to gd32f5xx_usart.o(.text.usart_hardware_flow_cts_config) for [Anonymous Symbol]
    gd32f5xx_usart.o(.ARM.exidx.text.usart_break_frame_coherence_config) refers to gd32f5xx_usart.o(.text.usart_break_frame_coherence_config) for [Anonymous Symbol]
    gd32f5xx_usart.o(.ARM.exidx.text.usart_parity_check_coherence_config) refers to gd32f5xx_usart.o(.text.usart_parity_check_coherence_config) for [Anonymous Symbol]
    gd32f5xx_usart.o(.ARM.exidx.text.usart_hardware_flow_coherence_config) refers to gd32f5xx_usart.o(.text.usart_hardware_flow_coherence_config) for [Anonymous Symbol]
    gd32f5xx_usart.o(.ARM.exidx.text.usart_dma_receive_config) refers to gd32f5xx_usart.o(.text.usart_dma_receive_config) for [Anonymous Symbol]
    gd32f5xx_usart.o(.ARM.exidx.text.usart_dma_transmit_config) refers to gd32f5xx_usart.o(.text.usart_dma_transmit_config) for [Anonymous Symbol]
    gd32f5xx_usart.o(.ARM.exidx.text.usart_flag_get) refers to gd32f5xx_usart.o(.text.usart_flag_get) for [Anonymous Symbol]
    gd32f5xx_usart.o(.ARM.exidx.text.usart_flag_clear) refers to gd32f5xx_usart.o(.text.usart_flag_clear) for [Anonymous Symbol]
    gd32f5xx_usart.o(.ARM.exidx.text.usart_interrupt_enable) refers to gd32f5xx_usart.o(.text.usart_interrupt_enable) for [Anonymous Symbol]
    gd32f5xx_usart.o(.ARM.exidx.text.usart_interrupt_disable) refers to gd32f5xx_usart.o(.text.usart_interrupt_disable) for [Anonymous Symbol]
    gd32f5xx_usart.o(.ARM.exidx.text.usart_interrupt_flag_get) refers to gd32f5xx_usart.o(.text.usart_interrupt_flag_get) for [Anonymous Symbol]
    gd32f5xx_usart.o(.ARM.exidx.text.usart_interrupt_flag_clear) refers to gd32f5xx_usart.o(.text.usart_interrupt_flag_clear) for [Anonymous Symbol]
    gd32f5xx_gpio.o(.text.gpio_deinit) refers to gd32f5xx_rcu.o(.text.rcu_periph_reset_enable) for rcu_periph_reset_enable
    gd32f5xx_gpio.o(.text.gpio_deinit) refers to gd32f5xx_rcu.o(.text.rcu_periph_reset_disable) for rcu_periph_reset_disable
    gd32f5xx_gpio.o(.ARM.exidx.text.gpio_deinit) refers to gd32f5xx_gpio.o(.text.gpio_deinit) for [Anonymous Symbol]
    gd32f5xx_gpio.o(.ARM.exidx.text.gpio_mode_set) refers to gd32f5xx_gpio.o(.text.gpio_mode_set) for [Anonymous Symbol]
    gd32f5xx_gpio.o(.ARM.exidx.text.gpio_output_options_set) refers to gd32f5xx_gpio.o(.text.gpio_output_options_set) for [Anonymous Symbol]
    gd32f5xx_gpio.o(.ARM.exidx.text.gpio_bit_set) refers to gd32f5xx_gpio.o(.text.gpio_bit_set) for [Anonymous Symbol]
    gd32f5xx_gpio.o(.ARM.exidx.text.gpio_bit_reset) refers to gd32f5xx_gpio.o(.text.gpio_bit_reset) for [Anonymous Symbol]
    gd32f5xx_gpio.o(.ARM.exidx.text.gpio_bit_write) refers to gd32f5xx_gpio.o(.text.gpio_bit_write) for [Anonymous Symbol]
    gd32f5xx_gpio.o(.ARM.exidx.text.gpio_port_write) refers to gd32f5xx_gpio.o(.text.gpio_port_write) for [Anonymous Symbol]
    gd32f5xx_gpio.o(.ARM.exidx.text.gpio_input_bit_get) refers to gd32f5xx_gpio.o(.text.gpio_input_bit_get) for [Anonymous Symbol]
    gd32f5xx_gpio.o(.ARM.exidx.text.gpio_input_port_get) refers to gd32f5xx_gpio.o(.text.gpio_input_port_get) for [Anonymous Symbol]
    gd32f5xx_gpio.o(.ARM.exidx.text.gpio_output_bit_get) refers to gd32f5xx_gpio.o(.text.gpio_output_bit_get) for [Anonymous Symbol]
    gd32f5xx_gpio.o(.ARM.exidx.text.gpio_output_port_get) refers to gd32f5xx_gpio.o(.text.gpio_output_port_get) for [Anonymous Symbol]
    gd32f5xx_gpio.o(.ARM.exidx.text.gpio_af_set) refers to gd32f5xx_gpio.o(.text.gpio_af_set) for [Anonymous Symbol]
    gd32f5xx_gpio.o(.ARM.exidx.text.gpio_pin_lock) refers to gd32f5xx_gpio.o(.text.gpio_pin_lock) for [Anonymous Symbol]
    gd32f5xx_gpio.o(.ARM.exidx.text.gpio_bit_toggle) refers to gd32f5xx_gpio.o(.text.gpio_bit_toggle) for [Anonymous Symbol]
    gd32f5xx_gpio.o(.ARM.exidx.text.gpio_port_toggle) refers to gd32f5xx_gpio.o(.text.gpio_port_toggle) for [Anonymous Symbol]
    gd32f5xx_fmc.o(.ARM.exidx.text.fmc_unlock) refers to gd32f5xx_fmc.o(.text.fmc_unlock) for [Anonymous Symbol]
    gd32f5xx_fmc.o(.ARM.exidx.text.fmc_lock) refers to gd32f5xx_fmc.o(.text.fmc_lock) for [Anonymous Symbol]
    gd32f5xx_fmc.o(.text.fmc_page_erase) refers to gd32f5xx_fmc.o(.text.fmc_ready_wait) for fmc_ready_wait
    gd32f5xx_fmc.o(.ARM.exidx.text.fmc_page_erase) refers to gd32f5xx_fmc.o(.text.fmc_page_erase) for [Anonymous Symbol]
    gd32f5xx_fmc.o(.text.fmc_ready_wait) refers to gd32f5xx_fmc.o(.text.fmc_state_get) for fmc_state_get
    gd32f5xx_fmc.o(.ARM.exidx.text.fmc_ready_wait) refers to gd32f5xx_fmc.o(.text.fmc_ready_wait) for [Anonymous Symbol]
    gd32f5xx_fmc.o(.text.fmc_sector_erase) refers to gd32f5xx_fmc.o(.text.fmc_ready_wait) for fmc_ready_wait
    gd32f5xx_fmc.o(.ARM.exidx.text.fmc_sector_erase) refers to gd32f5xx_fmc.o(.text.fmc_sector_erase) for [Anonymous Symbol]
    gd32f5xx_fmc.o(.text.fmc_mass_erase) refers to gd32f5xx_fmc.o(.text.fmc_ready_wait) for fmc_ready_wait
    gd32f5xx_fmc.o(.ARM.exidx.text.fmc_mass_erase) refers to gd32f5xx_fmc.o(.text.fmc_mass_erase) for [Anonymous Symbol]
    gd32f5xx_fmc.o(.text.fmc_bank0_erase) refers to gd32f5xx_fmc.o(.text.fmc_ready_wait) for fmc_ready_wait
    gd32f5xx_fmc.o(.ARM.exidx.text.fmc_bank0_erase) refers to gd32f5xx_fmc.o(.text.fmc_bank0_erase) for [Anonymous Symbol]
    gd32f5xx_fmc.o(.text.fmc_bank1_erase) refers to gd32f5xx_fmc.o(.text.fmc_ready_wait) for fmc_ready_wait
    gd32f5xx_fmc.o(.ARM.exidx.text.fmc_bank1_erase) refers to gd32f5xx_fmc.o(.text.fmc_bank1_erase) for [Anonymous Symbol]
    gd32f5xx_fmc.o(.text.fmc_doubleword_program) refers to gd32f5xx_fmc.o(.text.fmc_ready_wait) for fmc_ready_wait
    gd32f5xx_fmc.o(.ARM.exidx.text.fmc_doubleword_program) refers to gd32f5xx_fmc.o(.text.fmc_doubleword_program) for [Anonymous Symbol]
    gd32f5xx_fmc.o(.text.fmc_word_program) refers to gd32f5xx_fmc.o(.text.fmc_ready_wait) for fmc_ready_wait
    gd32f5xx_fmc.o(.ARM.exidx.text.fmc_word_program) refers to gd32f5xx_fmc.o(.text.fmc_word_program) for [Anonymous Symbol]
    gd32f5xx_fmc.o(.text.fmc_halfword_program) refers to gd32f5xx_fmc.o(.text.fmc_ready_wait) for fmc_ready_wait
    gd32f5xx_fmc.o(.ARM.exidx.text.fmc_halfword_program) refers to gd32f5xx_fmc.o(.text.fmc_halfword_program) for [Anonymous Symbol]
    gd32f5xx_fmc.o(.text.fmc_byte_program) refers to gd32f5xx_fmc.o(.text.fmc_ready_wait) for fmc_ready_wait
    gd32f5xx_fmc.o(.ARM.exidx.text.fmc_byte_program) refers to gd32f5xx_fmc.o(.text.fmc_byte_program) for [Anonymous Symbol]
    gd32f5xx_fmc.o(.ARM.exidx.text.fmc_nwa_enable) refers to gd32f5xx_fmc.o(.text.fmc_nwa_enable) for [Anonymous Symbol]
    gd32f5xx_fmc.o(.ARM.exidx.text.fmc_nwa_disable) refers to gd32f5xx_fmc.o(.text.fmc_nwa_disable) for [Anonymous Symbol]
    gd32f5xx_fmc.o(.ARM.exidx.text.otp1_read_disable) refers to gd32f5xx_fmc.o(.text.otp1_read_disable) for [Anonymous Symbol]
    gd32f5xx_fmc.o(.ARM.exidx.text.otp2_rlock_enable) refers to gd32f5xx_fmc.o(.text.otp2_rlock_enable) for [Anonymous Symbol]
    gd32f5xx_fmc.o(.ARM.exidx.text.ob_unlock) refers to gd32f5xx_fmc.o(.text.ob_unlock) for [Anonymous Symbol]
    gd32f5xx_fmc.o(.ARM.exidx.text.ob_lock) refers to gd32f5xx_fmc.o(.text.ob_lock) for [Anonymous Symbol]
    gd32f5xx_fmc.o(.ARM.exidx.text.ob_start) refers to gd32f5xx_fmc.o(.text.ob_start) for [Anonymous Symbol]
    gd32f5xx_fmc.o(.text.ob_erase) refers to gd32f5xx_fmc.o(.text.fmc_ready_wait) for fmc_ready_wait
    gd32f5xx_fmc.o(.ARM.exidx.text.ob_erase) refers to gd32f5xx_fmc.o(.text.ob_erase) for [Anonymous Symbol]
    gd32f5xx_fmc.o(.text.ob_write_protection_enable) refers to gd32f5xx_fmc.o(.text.fmc_ready_wait) for fmc_ready_wait
    gd32f5xx_fmc.o(.ARM.exidx.text.ob_write_protection_enable) refers to gd32f5xx_fmc.o(.text.ob_write_protection_enable) for [Anonymous Symbol]
    gd32f5xx_fmc.o(.text.ob_write_protection_disable) refers to gd32f5xx_fmc.o(.text.fmc_ready_wait) for fmc_ready_wait
    gd32f5xx_fmc.o(.ARM.exidx.text.ob_write_protection_disable) refers to gd32f5xx_fmc.o(.text.ob_write_protection_disable) for [Anonymous Symbol]
    gd32f5xx_fmc.o(.text.ob_drp_enable) refers to gd32f5xx_fmc.o(.text.fmc_ready_wait) for fmc_ready_wait
    gd32f5xx_fmc.o(.ARM.exidx.text.ob_drp_enable) refers to gd32f5xx_fmc.o(.text.ob_drp_enable) for [Anonymous Symbol]
    gd32f5xx_fmc.o(.text.ob_drp_disable) refers to gd32f5xx_fmc.o(.text.fmc_ready_wait) for fmc_ready_wait
    gd32f5xx_fmc.o(.ARM.exidx.text.ob_drp_disable) refers to gd32f5xx_fmc.o(.text.ob_drp_disable) for [Anonymous Symbol]
    gd32f5xx_fmc.o(.text.ob_security_protection_config) refers to gd32f5xx_fmc.o(.text.fmc_ready_wait) for fmc_ready_wait
    gd32f5xx_fmc.o(.ARM.exidx.text.ob_security_protection_config) refers to gd32f5xx_fmc.o(.text.ob_security_protection_config) for [Anonymous Symbol]
    gd32f5xx_fmc.o(.text.ob_user_write) refers to gd32f5xx_fmc.o(.text.fmc_ready_wait) for fmc_ready_wait
    gd32f5xx_fmc.o(.ARM.exidx.text.ob_user_write) refers to gd32f5xx_fmc.o(.text.ob_user_write) for [Anonymous Symbol]
    gd32f5xx_fmc.o(.ARM.exidx.text.ob_user_bor_threshold) refers to gd32f5xx_fmc.o(.text.ob_user_bor_threshold) for [Anonymous Symbol]
    gd32f5xx_fmc.o(.ARM.exidx.text.ob_boot_mode_config) refers to gd32f5xx_fmc.o(.text.ob_boot_mode_config) for [Anonymous Symbol]
    gd32f5xx_fmc.o(.ARM.exidx.text.ob_ecc_config) refers to gd32f5xx_fmc.o(.text.ob_ecc_config) for [Anonymous Symbol]
    gd32f5xx_fmc.o(.ARM.exidx.text.ob_nwa_select) refers to gd32f5xx_fmc.o(.text.ob_nwa_select) for [Anonymous Symbol]
    gd32f5xx_fmc.o(.ARM.exidx.text.ob_user_get) refers to gd32f5xx_fmc.o(.text.ob_user_get) for [Anonymous Symbol]
    gd32f5xx_fmc.o(.ARM.exidx.text.ob_write_protection0_get) refers to gd32f5xx_fmc.o(.text.ob_write_protection0_get) for [Anonymous Symbol]
    gd32f5xx_fmc.o(.ARM.exidx.text.ob_write_protection1_get) refers to gd32f5xx_fmc.o(.text.ob_write_protection1_get) for [Anonymous Symbol]
    gd32f5xx_fmc.o(.ARM.exidx.text.ob_drp0_get) refers to gd32f5xx_fmc.o(.text.ob_drp0_get) for [Anonymous Symbol]
    gd32f5xx_fmc.o(.ARM.exidx.text.ob_drp1_get) refers to gd32f5xx_fmc.o(.text.ob_drp1_get) for [Anonymous Symbol]
    gd32f5xx_fmc.o(.ARM.exidx.text.ob_spc_get) refers to gd32f5xx_fmc.o(.text.ob_spc_get) for [Anonymous Symbol]
    gd32f5xx_fmc.o(.ARM.exidx.text.ob_user_bor_threshold_get) refers to gd32f5xx_fmc.o(.text.ob_user_bor_threshold_get) for [Anonymous Symbol]
    gd32f5xx_fmc.o(.ARM.exidx.text.ob_boot_mode_get) refers to gd32f5xx_fmc.o(.text.ob_boot_mode_get) for [Anonymous Symbol]
    gd32f5xx_fmc.o(.ARM.exidx.text.ob_ecc_get) refers to gd32f5xx_fmc.o(.text.ob_ecc_get) for [Anonymous Symbol]
    gd32f5xx_fmc.o(.ARM.exidx.text.ob_nwa_get) refers to gd32f5xx_fmc.o(.text.ob_nwa_get) for [Anonymous Symbol]
    gd32f5xx_fmc.o(.ARM.exidx.text.fmc_flag_get) refers to gd32f5xx_fmc.o(.text.fmc_flag_get) for [Anonymous Symbol]
    gd32f5xx_fmc.o(.ARM.exidx.text.fmc_flag_clear) refers to gd32f5xx_fmc.o(.text.fmc_flag_clear) for [Anonymous Symbol]
    gd32f5xx_fmc.o(.ARM.exidx.text.fmc_interrupt_enable) refers to gd32f5xx_fmc.o(.text.fmc_interrupt_enable) for [Anonymous Symbol]
    gd32f5xx_fmc.o(.ARM.exidx.text.fmc_interrupt_disable) refers to gd32f5xx_fmc.o(.text.fmc_interrupt_disable) for [Anonymous Symbol]
    gd32f5xx_fmc.o(.ARM.exidx.text.fmc_interrupt_flag_get) refers to gd32f5xx_fmc.o(.text.fmc_interrupt_flag_get) for [Anonymous Symbol]
    gd32f5xx_fmc.o(.ARM.exidx.text.fmc_interrupt_flag_clear) refers to gd32f5xx_fmc.o(.text.fmc_interrupt_flag_clear) for [Anonymous Symbol]
    gd32f5xx_fmc.o(.ARM.exidx.text.fmc_state_get) refers to gd32f5xx_fmc.o(.text.fmc_state_get) for [Anonymous Symbol]
    gd32f5xx_fmc.o(.ARM.exidx.text.efuse_ctrl_unlock) refers to gd32f5xx_fmc.o(.text.efuse_ctrl_unlock) for [Anonymous Symbol]
    gd32f5xx_fmc.o(.ARM.exidx.text.efuse_ctrl_lock) refers to gd32f5xx_fmc.o(.text.efuse_ctrl_lock) for [Anonymous Symbol]
    gd32f5xx_fmc.o(.ARM.exidx.text.efuse_user_data_unlock) refers to gd32f5xx_fmc.o(.text.efuse_user_data_unlock) for [Anonymous Symbol]
    gd32f5xx_fmc.o(.ARM.exidx.text.efuse_user_data_lock) refers to gd32f5xx_fmc.o(.text.efuse_user_data_lock) for [Anonymous Symbol]
    gd32f5xx_fmc.o(.text.efuse_read) refers to gd32f5xx_fmc.o(.text.efuse_flag_clear) for efuse_flag_clear
    gd32f5xx_fmc.o(.text.efuse_read) refers to gd32f5xx_fmc.o(.text.efuse_flag_get) for efuse_flag_get
    gd32f5xx_fmc.o(.text.efuse_read) refers to gd32f5xx_fmc.o(.text.efuse_ready_wait) for efuse_ready_wait
    gd32f5xx_fmc.o(.ARM.exidx.text.efuse_read) refers to gd32f5xx_fmc.o(.text.efuse_read) for [Anonymous Symbol]
    gd32f5xx_fmc.o(.ARM.exidx.text.efuse_flag_clear) refers to gd32f5xx_fmc.o(.text.efuse_flag_clear) for [Anonymous Symbol]
    gd32f5xx_fmc.o(.ARM.exidx.text.efuse_flag_get) refers to gd32f5xx_fmc.o(.text.efuse_flag_get) for [Anonymous Symbol]
    gd32f5xx_fmc.o(.ARM.exidx.text.efuse_ready_wait) refers to gd32f5xx_fmc.o(.text.efuse_ready_wait) for [Anonymous Symbol]
    gd32f5xx_fmc.o(.text.efuse_write) refers to gd32f5xx_fmc.o(.text.efuse_flag_clear) for efuse_flag_clear
    gd32f5xx_fmc.o(.text.efuse_write) refers to gd32f5xx_fmc.o(.text.efuse_flag_get) for efuse_flag_get
    gd32f5xx_fmc.o(.text.efuse_write) refers to gd32f5xx_fmc.o(.text.efuse_ready_wait) for efuse_ready_wait
    gd32f5xx_fmc.o(.ARM.exidx.text.efuse_write) refers to gd32f5xx_fmc.o(.text.efuse_write) for [Anonymous Symbol]
    gd32f5xx_fmc.o(.text.efuse_control_write) refers to gd32f5xx_fmc.o(.text.efuse_write) for efuse_write
    gd32f5xx_fmc.o(.ARM.exidx.text.efuse_control_write) refers to gd32f5xx_fmc.o(.text.efuse_control_write) for [Anonymous Symbol]
    gd32f5xx_fmc.o(.text.efuse_user_data_write) refers to gd32f5xx_fmc.o(.text.efuse_write) for efuse_write
    gd32f5xx_fmc.o(.ARM.exidx.text.efuse_user_data_write) refers to gd32f5xx_fmc.o(.text.efuse_user_data_write) for [Anonymous Symbol]
    gd32f5xx_fmc.o(.ARM.exidx.text.efuse_interrupt_enable) refers to gd32f5xx_fmc.o(.text.efuse_interrupt_enable) for [Anonymous Symbol]
    gd32f5xx_fmc.o(.ARM.exidx.text.efuse_interrupt_disable) refers to gd32f5xx_fmc.o(.text.efuse_interrupt_disable) for [Anonymous Symbol]
    gd32f5xx_fmc.o(.ARM.exidx.text.efuse_interrupt_flag_get) refers to gd32f5xx_fmc.o(.text.efuse_interrupt_flag_get) for [Anonymous Symbol]
    gd32f5xx_fmc.o(.ARM.exidx.text.efuse_interrupt_flag_clear) refers to gd32f5xx_fmc.o(.text.efuse_interrupt_flag_clear) for [Anonymous Symbol]
    gd32f5xx_syscfg.o(.text.syscfg_deinit) refers to gd32f5xx_rcu.o(.text.rcu_periph_reset_enable) for rcu_periph_reset_enable
    gd32f5xx_syscfg.o(.text.syscfg_deinit) refers to gd32f5xx_rcu.o(.text.rcu_periph_reset_disable) for rcu_periph_reset_disable
    gd32f5xx_syscfg.o(.ARM.exidx.text.syscfg_deinit) refers to gd32f5xx_syscfg.o(.text.syscfg_deinit) for [Anonymous Symbol]
    gd32f5xx_syscfg.o(.ARM.exidx.text.syscfg_bootmode_config) refers to gd32f5xx_syscfg.o(.text.syscfg_bootmode_config) for [Anonymous Symbol]
    gd32f5xx_syscfg.o(.ARM.exidx.text.syscfg_fmc_swap_config) refers to gd32f5xx_syscfg.o(.text.syscfg_fmc_swap_config) for [Anonymous Symbol]
    gd32f5xx_syscfg.o(.ARM.exidx.text.syscfg_exmc_swap_config) refers to gd32f5xx_syscfg.o(.text.syscfg_exmc_swap_config) for [Anonymous Symbol]
    gd32f5xx_syscfg.o(.ARM.exidx.text.syscfg_exti_line_config) refers to gd32f5xx_syscfg.o(.text.syscfg_exti_line_config) for [Anonymous Symbol]
    gd32f5xx_syscfg.o(.ARM.exidx.text.syscfg_enet_phy_interface_config) refers to gd32f5xx_syscfg.o(.text.syscfg_enet_phy_interface_config) for [Anonymous Symbol]
    gd32f5xx_syscfg.o(.ARM.exidx.text.syscfg_compensation_config) refers to gd32f5xx_syscfg.o(.text.syscfg_compensation_config) for [Anonymous Symbol]
    gd32f5xx_syscfg.o(.ARM.exidx.text.syscfg_cps_cell_ready_get) refers to gd32f5xx_syscfg.o(.text.syscfg_cps_cell_ready_get) for [Anonymous Symbol]
    gd32f5xx_syscfg.o(.ARM.exidx.text.syscfg_ecc_err_bits_get) refers to gd32f5xx_syscfg.o(.text.syscfg_ecc_err_bits_get) for [Anonymous Symbol]
    gd32f5xx_syscfg.o(.ARM.exidx.text.syscfg_ecc_address_get) refers to gd32f5xx_syscfg.o(.text.syscfg_ecc_address_get) for [Anonymous Symbol]
    gd32f5xx_syscfg.o(.ARM.exidx.text.syscfg_flag_get) refers to gd32f5xx_syscfg.o(.text.syscfg_flag_get) for [Anonymous Symbol]
    gd32f5xx_syscfg.o(.ARM.exidx.text.syscfg_flag_clear) refers to gd32f5xx_syscfg.o(.text.syscfg_flag_clear) for [Anonymous Symbol]
    gd32f5xx_syscfg.o(.ARM.exidx.text.syscfg_interrupt_enable) refers to gd32f5xx_syscfg.o(.text.syscfg_interrupt_enable) for [Anonymous Symbol]
    gd32f5xx_syscfg.o(.ARM.exidx.text.syscfg_interrupt_disable) refers to gd32f5xx_syscfg.o(.text.syscfg_interrupt_disable) for [Anonymous Symbol]
    gd32f5xx_syscfg.o(.ARM.exidx.text.syscfg_interrupt_flag_get) refers to gd32f5xx_syscfg.o(.text.syscfg_interrupt_flag_get) for [Anonymous Symbol]
    gd32f5xx_syscfg.o(.ARM.exidx.text.syscfg_interrupt_flag_clear) refers to gd32f5xx_syscfg.o(.text.syscfg_interrupt_flag_clear) for [Anonymous Symbol]
    entry.o(.ARM.Collect$$$$00000000) refers (Special) to entry10a.o(.ARM.Collect$$$$0000000D) for __rt_final_cpp
    entry.o(.ARM.Collect$$$$00000000) refers (Special) to entry11a.o(.ARM.Collect$$$$0000000F) for __rt_final_exit
    entry.o(.ARM.Collect$$$$00000000) refers (Special) to entry7b.o(.ARM.Collect$$$$00000008) for _main_clock
    entry.o(.ARM.Collect$$$$00000000) refers (Special) to entry8b.o(.ARM.Collect$$$$0000000A) for _main_cpp_init
    entry.o(.ARM.Collect$$$$00000000) refers (Special) to entry9a.o(.ARM.Collect$$$$0000000B) for _main_init
    entry.o(.ARM.Collect$$$$00000000) refers (Special) to entry5.o(.ARM.Collect$$$$00000004) for _main_scatterload
    entry.o(.ARM.Collect$$$$00000000) refers (Special) to entry3.o(.ARM.Collect$$$$00000002) for _main_stk
    malloc1.o(i.__free$1region) refers to mvars.o(.data) for __microlib_freelist
    malloc1.o(i.__malloc$1region) refers to mvars.o(.data) for __microlib_freelist_initialised
    malloc1.o(i.__malloc$1region) refers to mvars.o(.data) for __microlib_freelist
    mallocr1.o(i.__free$realloc$1region) refers to mvars.o(.data) for __microlib_freelist
    mallocr1.o(i.__malloc$realloc$1region) refers to mallocr1.o(i.internal_alloc) for internal_alloc
    mallocr1.o(i.__malloc$realloc$1region) refers to mvars.o(.data) for __microlib_freelist_initialised
    mallocr1.o(i.__malloc$realloc$1region) refers to mvars.o(.data) for __microlib_freelist
    mallocr1.o(i.__realloc$1region) refers to mallocr1.o(i.__free$realloc$1region) for __free$realloc$1region
    mallocr1.o(i.__realloc$1region) refers to mallocr1.o(i.internal_alloc) for internal_alloc
    mallocr1.o(i.__realloc$1region) refers to mallocr1.o(i.__malloc$realloc$1region) for __malloc$realloc$1region
    mallocr1.o(i.__realloc$1region) refers to mvars.o(.data) for __microlib_freelist
    mallocr1.o(i.internal_alloc) refers to memcpya.o(.text) for __aeabi_memcpy
    mallocr1.o(i.internal_alloc) refers to mvars.o(.data) for __microlib_freelist
    malloca1.o(i.__aligned_malloc$1region) refers to mvars.o(.data) for __microlib_freelist_initialised
    malloca1.o(i.__aligned_malloc$1region) refers to mvars.o(.data) for __microlib_freelist
    malloca1.o(i.__free$memalign$1region) refers to mvars.o(.data) for __microlib_freelist
    malloca1.o(i.__malloc$memalign$1region) refers to malloca1.o(i.__aligned_malloc$1region) for __aligned_malloc$1region
    mallocra1.o(i.__aligned_malloc$realloc$1region) refers to mallocra1.o(i.internal_alloc) for internal_alloc
    mallocra1.o(i.__aligned_malloc$realloc$1region) refers to mvars.o(.data) for __microlib_freelist_initialised
    mallocra1.o(i.__aligned_malloc$realloc$1region) refers to mvars.o(.data) for __microlib_freelist
    mallocra1.o(i.__free$realloc$memalign$1region) refers to mvars.o(.data) for __microlib_freelist
    mallocra1.o(i.__malloc$realloc$memalign$1region) refers to mallocra1.o(i.__aligned_malloc$realloc$1region) for __aligned_malloc$realloc$1region
    mallocra1.o(i.__realloc$memalign$1region) refers to mallocra1.o(i.__free$realloc$memalign$1region) for __free$realloc$memalign$1region
    mallocra1.o(i.__realloc$memalign$1region) refers to mallocra1.o(i.internal_alloc) for internal_alloc
    mallocra1.o(i.__realloc$memalign$1region) refers to mallocra1.o(i.__malloc$realloc$memalign$1region) for __malloc$realloc$memalign$1region
    mallocra1.o(i.__realloc$memalign$1region) refers to mvars.o(.data) for __microlib_freelist
    mallocra1.o(i.internal_alloc) refers to memcpya.o(.text) for __aeabi_memcpy
    mallocra1.o(i.internal_alloc) refers to mvars.o(.data) for __microlib_freelist
    entry3.o(.ARM.Collect$$$$00000002) refers to entry3.o(.ARM.Collect$$$$00002713) for __lit__00000000
    entry3.o(__vectab_stack_and_reset_area) refers to entry.o(.ARM.Collect$$$$00000000) for __main
    entry5.o(.ARM.Collect$$$$00000004) refers to init.o(.text) for __scatterload
    entry9a.o(.ARM.Collect$$$$0000000B) refers to mbl.o(.text.main) for main
    entry9b.o(.ARM.Collect$$$$0000000C) refers to mbl.o(.text.main) for main
    init.o(.text) refers to entry5.o(.ARM.Collect$$$$00000004) for __main_after_scatterload


==============================================================================

Removing Unused input sections from the image.

    Removing mbl.o(.text), (0 bytes).
    Removing mbl.o(.ARM.exidx.text.ymodem_packet_init), (8 bytes).
    Removing mbl.o(.ARM.exidx.text.main), (8 bytes).
    Removing mbl.o(.ARM.exidx.text.__NVIC_SystemReset), (8 bytes).
    Removing mbl.o(.ARM.exidx.text.do_boot), (8 bytes).
    Removing mbl.o(.ARM.use_no_argv), (4 bytes).
    Removing mbl_gd32f5xx_it.o(.text), (0 bytes).
    Removing mbl_gd32f5xx_it.o(.ARM.exidx.text.NMI_Handler), (8 bytes).
    Removing mbl_gd32f5xx_it.o(.ARM.exidx.text.HardFault_Handler_c), (8 bytes).
    Removing mbl_gd32f5xx_it.o(.ARM.exidx.text.HardFault_Handler), (8 bytes).
    Removing mbl_gd32f5xx_it.o(.ARM.exidx.text.MemManage_Handler), (8 bytes).
    Removing mbl_gd32f5xx_it.o(.ARM.exidx.text.BusFault_Handler), (8 bytes).
    Removing mbl_gd32f5xx_it.o(.ARM.exidx.text.UsageFault_Handler), (8 bytes).
    Removing mbl_gd32f5xx_it.o(.ARM.exidx.text.SVC_Handler), (8 bytes).
    Removing mbl_gd32f5xx_it.o(.ARM.exidx.text.DebugMon_Handler), (8 bytes).
    Removing mbl_gd32f5xx_it.o(.ARM.exidx.text.PendSV_Handler), (8 bytes).
    Removing mbl_gd32f5xx_it.o(.ARM.exidx.text.SysTick_Handler), (8 bytes).
    Removing mbl_gd32f5xx_it.o(.ARM.exidx.text.UART6_IRQHandler), (8 bytes).
    Removing mbl_systick.o(.text), (0 bytes).
    Removing mbl_systick.o(.ARM.exidx.text.systick_config), (8 bytes).
    Removing mbl_systick.o(.ARM.exidx.text.SysTick_Config), (8 bytes).
    Removing mbl_systick.o(.ARM.exidx.text.__NVIC_SetPriority), (8 bytes).
    Removing mbl_systick.o(.ARM.exidx.text.delay_1ms), (8 bytes).
    Removing mbl_systick.o(.ARM.exidx.text.delay_decrement), (8 bytes).
    Removing boot_hal.o(.text), (0 bytes).
    Removing boot_hal.o(.ARM.exidx.text.__aeabi_assert), (8 bytes).
    Removing flash_map.o(.text), (0 bytes).
    Removing flash_map.o(.ARM.exidx.text.flash_device_base), (8 bytes).
    Removing flash_map.o(.ARM.exidx.text.flash_area_open), (8 bytes).
    Removing flash_map.o(.ARM.exidx.text.flash_area_close), (8 bytes).
    Removing flash_map.o(.ARM.exidx.text.flash_area_read), (8 bytes).
    Removing flash_map.o(.ARM.exidx.text.flash_area_write), (8 bytes).
    Removing flash_map.o(.ARM.exidx.text.flash_area_erase), (8 bytes).
    Removing flash_map.o(.ARM.exidx.text.flash_area_align), (8 bytes).
    Removing flash_map.o(.ARM.exidx.text.flash_area_erased_val), (8 bytes).
    Removing flash_map.o(.ARM.exidx.text.flash_area_id_to_multi_image_slot), (8 bytes).
    Removing flash_map.o(.text.flash_area_id_from_image_slot), (18 bytes).
    Removing flash_map.o(.ARM.exidx.text.flash_area_id_from_image_slot), (8 bytes).
    Removing flash_map.o(.ARM.exidx.text.flash_area_id_from_multi_image_slot), (8 bytes).
    Removing flash_map.o(.ARM.exidx.text.flash_area_get_sectors), (8 bytes).
    Removing keys.o(.text), (0 bytes).
    Removing keys.o(.ARM.exidx.text.mbl_get_rotpk), (8 bytes).
    Removing keys.o(.rodata.rsa_pub_key), (270 bytes).
    Removing boot_record.o(.text), (0 bytes).
    Removing bootutil_misc.o(.text), (0 bytes).
    Removing bootutil_misc.o(.ARM.exidx.text.boot_fih_memequal), (8 bytes).
    Removing bootutil_misc.o(.ARM.exidx.text.boot_status_sz), (8 bytes).
    Removing bootutil_misc.o(.ARM.exidx.text.boot_status_entry_sz), (8 bytes).
    Removing bootutil_misc.o(.ARM.exidx.text.boot_trailer_sz), (8 bytes).
    Removing bootutil_misc.o(.ARM.exidx.text.boot_trailer_info_sz), (8 bytes).
    Removing bootutil_misc.o(.ARM.exidx.text.boot_status_entries), (8 bytes).
    Removing bootutil_misc.o(.ARM.exidx.text.flash_area_get_id), (8 bytes).
    Removing bootutil_misc.o(.ARM.exidx.text.boot_status_off), (8 bytes).
    Removing bootutil_misc.o(.ARM.exidx.text.boot_scratch_trailer_sz), (8 bytes).
    Removing bootutil_misc.o(.ARM.exidx.text.flash_area_get_size), (8 bytes).
    Removing bootutil_misc.o(.ARM.exidx.text.boot_find_status), (8 bytes).
    Removing bootutil_misc.o(.ARM.exidx.text.boot_magic_off), (8 bytes).
    Removing bootutil_misc.o(.ARM.exidx.text.boot_magic_decode), (8 bytes).
    Removing bootutil_misc.o(.ARM.exidx.text.boot_read_swap_size), (8 bytes).
    Removing bootutil_misc.o(.ARM.exidx.text.boot_swap_size_off), (8 bytes).
    Removing bootutil_misc.o(.ARM.exidx.text.boot_read_enc_key), (8 bytes).
    Removing bootutil_misc.o(.ARM.exidx.text.boot_enc_key_off), (8 bytes).
    Removing bootutil_misc.o(.ARM.exidx.text.boot_write_swap_size), (8 bytes).
    Removing bootutil_misc.o(.ARM.exidx.text.flash_area_get_off), (8 bytes).
    Removing bootutil_misc.o(.ARM.exidx.text.boot_write_enc_key), (8 bytes).
    Removing bootutil_misc.o(.ARM.exidx.text.bootutil_max_image_size), (8 bytes).
    Removing bootutil_misc.o(.bss.boot_current_slot), (4 bytes).
    Removing bootutil_public.o(.text), (0 bytes).
    Removing bootutil_public.o(.ARM.exidx.text.boot_swap_info_off), (8 bytes).
    Removing bootutil_public.o(.ARM.exidx.text.boot_copy_done_off), (8 bytes).
    Removing bootutil_public.o(.ARM.exidx.text.boot_magic_compatible_check), (8 bytes).
    Removing bootutil_public.o(.ARM.exidx.text.bootutil_buffer_is_erased), (8 bytes).
    Removing bootutil_public.o(.ARM.exidx.text.boot_read_swap_state), (8 bytes).
    Removing bootutil_public.o(.ARM.exidx.text.boot_magic_off), (8 bytes).
    Removing bootutil_public.o(.ARM.exidx.text.boot_magic_decode), (8 bytes).
    Removing bootutil_public.o(.ARM.exidx.text.boot_read_copy_done), (8 bytes).
    Removing bootutil_public.o(.ARM.exidx.text.boot_read_image_ok), (8 bytes).
    Removing bootutil_public.o(.ARM.exidx.text.boot_read_swap_state_by_id), (8 bytes).
    Removing bootutil_public.o(.ARM.exidx.text.boot_write_magic), (8 bytes).
    Removing bootutil_public.o(.ARM.exidx.text.flash_area_get_id), (8 bytes).
    Removing bootutil_public.o(.ARM.exidx.text.flash_area_get_off), (8 bytes).
    Removing bootutil_public.o(.ARM.exidx.text.boot_write_trailer), (8 bytes).
    Removing bootutil_public.o(.ARM.exidx.text.boot_write_trailer_flag), (8 bytes).
    Removing bootutil_public.o(.ARM.exidx.text.boot_write_image_ok), (8 bytes).
    Removing bootutil_public.o(.ARM.exidx.text.boot_image_ok_off), (8 bytes).
    Removing bootutil_public.o(.text.boot_write_image_ok_unset), (104 bytes).
    Removing bootutil_public.o(.ARM.exidx.text.boot_write_image_ok_unset), (8 bytes).
    Removing bootutil_public.o(.text.boot_write_copy_done_unset), (104 bytes).
    Removing bootutil_public.o(.ARM.exidx.text.boot_write_copy_done_unset), (8 bytes).
    Removing bootutil_public.o(.text.boot_write_magic_unset), (154 bytes).
    Removing bootutil_public.o(.ARM.exidx.text.boot_write_magic_unset), (8 bytes).
    Removing bootutil_public.o(.ARM.exidx.text.boot_read_flag), (8 bytes).
    Removing bootutil_public.o(.ARM.exidx.text.boot_write_swap_info), (8 bytes).
    Removing bootutil_public.o(.ARM.exidx.text.boot_swap_type_multi), (8 bytes).
    Removing bootutil_public.o(.ARM.exidx.text.boot_write_copy_done), (8 bytes).
    Removing bootutil_public.o(.text.boot_set_next), (306 bytes).
    Removing bootutil_public.o(.ARM.exidx.text.boot_set_next), (8 bytes).
    Removing bootutil_public.o(.text.flash_area_to_image), (10 bytes).
    Removing bootutil_public.o(.ARM.exidx.text.flash_area_to_image), (8 bytes).
    Removing bootutil_public.o(.ARM.exidx.text.flash_area_get_size), (8 bytes).
    Removing bootutil_public.o(.text.boot_swap_type), (10 bytes).
    Removing bootutil_public.o(.ARM.exidx.text.boot_swap_type), (8 bytes).
    Removing bootutil_public.o(.text.boot_set_pending_multi), (72 bytes).
    Removing bootutil_public.o(.ARM.exidx.text.boot_set_pending_multi), (8 bytes).
    Removing bootutil_public.o(.text.boot_set_pending), (18 bytes).
    Removing bootutil_public.o(.ARM.exidx.text.boot_set_pending), (8 bytes).
    Removing bootutil_public.o(.text.boot_set_confirmed_multi), (68 bytes).
    Removing bootutil_public.o(.ARM.exidx.text.boot_set_confirmed_multi), (8 bytes).
    Removing bootutil_public.o(.text.boot_set_confirmed), (10 bytes).
    Removing bootutil_public.o(.ARM.exidx.text.boot_set_confirmed), (8 bytes).
    Removing bootutil_public.o(.text.boot_image_load_header), (222 bytes).
    Removing bootutil_public.o(.ARM.exidx.text.boot_image_load_header), (8 bytes).
    Removing bootutil_public.o(.text.boot_u32_safe_add), (54 bytes).
    Removing bootutil_public.o(.ARM.exidx.text.boot_u32_safe_add), (8 bytes).
    Removing bootutil_public.o(.ARM.exidx.text.boot_flag_decode), (8 bytes).
    Removing caps.o(.text), (0 bytes).
    Removing caps.o(.text.bootutil_get_caps), (52 bytes).
    Removing caps.o(.ARM.exidx.text.bootutil_get_caps), (8 bytes).
    Removing caps.o(.text.bootutil_get_num_images), (4 bytes).
    Removing caps.o(.ARM.exidx.text.bootutil_get_num_images), (8 bytes).
    Removing encrypted.o(.text), (0 bytes).
    Removing encrypted.o(.ARM.exidx.text.boot_enc_init), (8 bytes).
    Removing encrypted.o(.ARM.exidx.text.bootutil_aes_ctr_init), (8 bytes).
    Removing encrypted.o(.ARM.exidx.text.boot_enc_drop), (8 bytes).
    Removing encrypted.o(.ARM.exidx.text.bootutil_aes_ctr_drop), (8 bytes).
    Removing encrypted.o(.ARM.exidx.text.boot_enc_set_key), (8 bytes).
    Removing encrypted.o(.ARM.exidx.text.bootutil_aes_ctr_set_key), (8 bytes).
    Removing encrypted.o(.ARM.exidx.text.boot_enc_decrypt), (8 bytes).
    Removing encrypted.o(.ARM.exidx.text.bootutil_rsa_init), (8 bytes).
    Removing encrypted.o(.ARM.exidx.text.bootutil_rsa_parse_private_key), (8 bytes).
    Removing encrypted.o(.ARM.exidx.text.bootutil_rsa_drop), (8 bytes).
    Removing encrypted.o(.ARM.exidx.text.bootutil_rsa_oaep_decrypt), (8 bytes).
    Removing encrypted.o(.ARM.exidx.text.boot_enc_load), (8 bytes).
    Removing encrypted.o(.ARM.exidx.text.flash_area_get_id), (8 bytes).
    Removing encrypted.o(.ARM.exidx.text.boot_enc_valid), (8 bytes).
    Removing encrypted.o(.ARM.exidx.text.boot_encrypt), (8 bytes).
    Removing encrypted.o(.ARM.exidx.text.bootutil_aes_ctr_encrypt), (8 bytes).
    Removing encrypted.o(.text.boot_enc_zeroize), (60 bytes).
    Removing encrypted.o(.ARM.exidx.text.boot_enc_zeroize), (8 bytes).
    Removing fault_injection_hardening.o(.text), (0 bytes).
    Removing fault_injection_hardening_delay_rng_mbedtls.o(.text), (0 bytes).
    Removing image_ecdsa.o(.text), (0 bytes).
    Removing image_ed25519.o(.text), (0 bytes).
    Removing image_rsa.o(.text), (0 bytes).
    Removing image_rsa.o(.ARM.exidx.text.bootutil_verify_sig), (8 bytes).
    Removing image_validate.o(.text), (0 bytes).
    Removing image_validate.o(.text.bootutil_get_img_security_cnt), (166 bytes).
    Removing image_validate.o(.ARM.exidx.text.bootutil_get_img_security_cnt), (8 bytes).
    Removing image_validate.o(.ARM.exidx.text.bootutil_img_validate), (8 bytes).
    Removing image_validate.o(.ARM.exidx.text.bootutil_img_hash), (8 bytes).
    Removing image_validate.o(.ARM.exidx.text.bootutil_find_key), (8 bytes).
    Removing image_validate.o(.ARM.exidx.text.flash_area_get_id), (8 bytes).
    Removing image_validate.o(.ARM.exidx.text.bootutil_sha_init), (8 bytes).
    Removing image_validate.o(.ARM.exidx.text.bootutil_sha_update), (8 bytes).
    Removing image_validate.o(.ARM.exidx.text.bootutil_sha_drop), (8 bytes).
    Removing image_validate.o(.ARM.exidx.text.bootutil_sha_finish), (8 bytes).
    Removing loader.o(.text), (0 bytes).
    Removing loader.o(.ARM.exidx.text.boot_status_reset), (8 bytes).
    Removing loader.o(.ARM.exidx.text.boot_status_is_reset), (8 bytes).
    Removing loader.o(.ARM.exidx.text.boot_write_status), (8 bytes).
    Removing loader.o(.ARM.exidx.text.boot_erase_region), (8 bytes).
    Removing loader.o(.ARM.exidx.text.boot_copy_region), (8 bytes).
    Removing loader.o(.ARM.exidx.text.flash_area_get_id), (8 bytes).
    Removing loader.o(.ARM.exidx.text.boot_img_hdr), (8 bytes).
    Removing loader.o(.ARM.exidx.text.context_boot_go), (8 bytes).
    Removing loader.o(.ARM.exidx.text.boot_prepare_image_for_update), (8 bytes).
    Removing loader.o(.ARM.exidx.text.check_downgrade_prevention), (8 bytes).
    Removing loader.o(.ARM.exidx.text.boot_perform_update), (8 bytes).
    Removing loader.o(.ARM.exidx.text.boot_read_image_headers), (8 bytes).
    Removing loader.o(.ARM.exidx.text.boot_validate_slot), (8 bytes).
    Removing loader.o(.ARM.exidx.text.boot_update_hw_rollback_protection), (8 bytes).
    Removing loader.o(.ARM.exidx.text.boot_add_shared_data), (8 bytes).
    Removing loader.o(.ARM.exidx.text.fill_rsp), (8 bytes).
    Removing loader.o(.ARM.exidx.text.like_mbedtls_zeroize), (8 bytes).
    Removing loader.o(.ARM.exidx.text.close_all_flash_areas), (8 bytes).
    Removing loader.o(.text.split_go), (522 bytes).
    Removing loader.o(.ARM.exidx.text.split_go), (8 bytes).
    Removing loader.o(.ARM.exidx.text.boot_read_sectors), (8 bytes).
    Removing loader.o(.text.split_image_check), (268 bytes).
    Removing loader.o(.ARM.exidx.text.split_image_check), (8 bytes).
    Removing loader.o(.ARM.exidx.text.boot_img_slot_off), (8 bytes).
    Removing loader.o(.ARM.exidx.text.boot_go), (8 bytes).
    Removing loader.o(.ARM.exidx.text.boot_state_clear), (8 bytes).
    Removing loader.o(.text.boot_go_for_image_id), (96 bytes).
    Removing loader.o(.ARM.exidx.text.boot_go_for_image_id), (8 bytes).
    Removing loader.o(.ARM.exidx.text.boot_complete_partial_swap), (8 bytes).
    Removing loader.o(.ARM.exidx.text.boot_validated_swap_type), (8 bytes).
    Removing loader.o(.ARM.exidx.text.boot_swap_image), (8 bytes).
    Removing loader.o(.ARM.exidx.text.boot_read_image_size), (8 bytes).
    Removing loader.o(.ARM.exidx.text.boot_version_cmp), (8 bytes).
    Removing loader.o(.ARM.exidx.text.flash_area_get_size), (8 bytes).
    Removing loader.o(.ARM.exidx.text.boot_check_header_erased), (8 bytes).
    Removing loader.o(.ARM.exidx.text.boot_image_check), (8 bytes).
    Removing loader.o(.ARM.exidx.text.boot_is_header_valid), (8 bytes).
    Removing loader.o(.ARM.exidx.text.boot_data_is_set_to), (8 bytes).
    Removing loader.o(.ARM.exidx.text.boot_u32_safe_add), (8 bytes).
    Removing loader.o(.ARM.exidx.text.flash_area_get_device_id), (8 bytes).
    Removing loader.o(.ARM.exidx.text.boot_initialize_area), (8 bytes).
    Removing loader.o(.ARM.exidx.text.boot_write_sz), (8 bytes).
    Removing loader.o(.ARM.exidx.text.flash_area_get_off), (8 bytes).
    Removing loader.o(.bss.split_image_check.tmpbuf), (4 bytes).
    Removing swap_misc.o(.text), (0 bytes).
    Removing swap_misc.o(.ARM.exidx.text.swap_erase_trailer_sectors), (8 bytes).
    Removing swap_misc.o(.ARM.exidx.text.flash_area_get_id), (8 bytes).
    Removing swap_misc.o(.ARM.exidx.text.boot_img_num_sectors), (8 bytes).
    Removing swap_misc.o(.ARM.exidx.text.boot_img_sector_size), (8 bytes).
    Removing swap_misc.o(.ARM.exidx.text.boot_img_sector_off), (8 bytes).
    Removing swap_misc.o(.ARM.exidx.text.swap_status_init), (8 bytes).
    Removing swap_misc.o(.ARM.exidx.text.swap_read_status), (8 bytes).
    Removing swap_misc.o(.ARM.exidx.text.swap_set_copy_done), (8 bytes).
    Removing swap_misc.o(.ARM.exidx.text.swap_set_image_ok), (8 bytes).
    Removing swap_misc.o(.ARM.exidx.text.flash_sector_get_size), (8 bytes).
    Removing swap_misc.o(.ARM.exidx.text.flash_sector_get_off), (8 bytes).
    Removing swap_move.o(.text), (0 bytes).
    Removing swap_scratch.o(.text), (0 bytes).
    Removing swap_scratch.o(.ARM.exidx.text.boot_read_image_header), (8 bytes).
    Removing swap_scratch.o(.ARM.exidx.text.swap_read_status_bytes), (8 bytes).
    Removing swap_scratch.o(.ARM.exidx.text.boot_status_internal_off), (8 bytes).
    Removing swap_scratch.o(.ARM.exidx.text.boot_slots_compatible), (8 bytes).
    Removing swap_scratch.o(.ARM.exidx.text.boot_img_num_sectors), (8 bytes).
    Removing swap_scratch.o(.ARM.exidx.text.boot_scratch_area_size), (8 bytes).
    Removing swap_scratch.o(.ARM.exidx.text.boot_img_sector_size), (8 bytes).
    Removing swap_scratch.o(.ARM.exidx.text.swap_status_source), (8 bytes).
    Removing swap_scratch.o(.ARM.exidx.text.swap_run), (8 bytes).
    Removing swap_scratch.o(.ARM.exidx.text.boot_copy_sz), (8 bytes).
    Removing swap_scratch.o(.ARM.exidx.text.boot_swap_sectors), (8 bytes).
    Removing swap_scratch.o(.text.app_max_size), (452 bytes).
    Removing swap_scratch.o(.ARM.exidx.text.app_max_size), (8 bytes).
    Removing swap_scratch.o(.ARM.exidx.text.flash_area_get_size), (8 bytes).
    Removing swap_scratch.o(.ARM.exidx.text.flash_sector_get_size), (8 bytes).
    Removing swap_scratch.o(.ARM.exidx.text.boot_img_sector_off), (8 bytes).
    Removing swap_scratch.o(.ARM.exidx.text.flash_sector_get_off), (8 bytes).
    Removing tlv.o(.text), (0 bytes).
    Removing tlv.o(.ARM.exidx.text.bootutil_tlv_iter_begin), (8 bytes).
    Removing tlv.o(.ARM.exidx.text.bootutil_tlv_iter_next), (8 bytes).
    Removing system_gd32f5xx.o(.text), (0 bytes).
    Removing system_gd32f5xx.o(.ARM.exidx.text.SystemInit), (8 bytes).
    Removing system_gd32f5xx.o(.ARM.exidx.text.system_clock_config), (8 bytes).
    Removing system_gd32f5xx.o(.text.SystemCoreClockUpdate), (284 bytes).
    Removing system_gd32f5xx.o(.ARM.exidx.text.SystemCoreClockUpdate), (8 bytes).
    Removing system_gd32f5xx.o(.ARM.exidx.text.system_clock_200m_25m_hxtal), (8 bytes).
    Removing system_gd32f5xx.o(.rodata.cst16), (16 bytes).
    Removing gd32f5xx_misc.o(.text), (0 bytes).
    Removing gd32f5xx_misc.o(.text.nvic_priority_group_set), (28 bytes).
    Removing gd32f5xx_misc.o(.ARM.exidx.text.nvic_priority_group_set), (8 bytes).
    Removing gd32f5xx_misc.o(.text.nvic_irq_enable), (288 bytes).
    Removing gd32f5xx_misc.o(.ARM.exidx.text.nvic_irq_enable), (8 bytes).
    Removing gd32f5xx_misc.o(.text.nvic_irq_disable), (32 bytes).
    Removing gd32f5xx_misc.o(.ARM.exidx.text.nvic_irq_disable), (8 bytes).
    Removing gd32f5xx_misc.o(.text.nvic_system_reset), (4 bytes).
    Removing gd32f5xx_misc.o(.ARM.exidx.text.nvic_system_reset), (8 bytes).
    Removing gd32f5xx_misc.o(.text.__NVIC_SystemReset), (38 bytes).
    Removing gd32f5xx_misc.o(.ARM.exidx.text.__NVIC_SystemReset), (8 bytes).
    Removing gd32f5xx_misc.o(.text.nvic_vector_table_set), (40 bytes).
    Removing gd32f5xx_misc.o(.ARM.exidx.text.nvic_vector_table_set), (8 bytes).
    Removing gd32f5xx_misc.o(.text.system_lowpower_set), (28 bytes).
    Removing gd32f5xx_misc.o(.ARM.exidx.text.system_lowpower_set), (8 bytes).
    Removing gd32f5xx_misc.o(.text.system_lowpower_reset), (28 bytes).
    Removing gd32f5xx_misc.o(.ARM.exidx.text.system_lowpower_reset), (8 bytes).
    Removing gd32f5xx_misc.o(.text.systick_clksource_set), (52 bytes).
    Removing gd32f5xx_misc.o(.ARM.exidx.text.systick_clksource_set), (8 bytes).
    Removing gd32f5xx_rcu.o(.text), (0 bytes).
    Removing gd32f5xx_rcu.o(.text.rcu_deinit), (164 bytes).
    Removing gd32f5xx_rcu.o(.ARM.exidx.text.rcu_deinit), (8 bytes).
    Removing gd32f5xx_rcu.o(.text.rcu_osci_stab_wait), (694 bytes).
    Removing gd32f5xx_rcu.o(.ARM.exidx.text.rcu_osci_stab_wait), (8 bytes).
    Removing gd32f5xx_rcu.o(.text.rcu_periph_clock_enable), (36 bytes).
    Removing gd32f5xx_rcu.o(.ARM.exidx.text.rcu_periph_clock_enable), (8 bytes).
    Removing gd32f5xx_rcu.o(.text.rcu_periph_clock_disable), (36 bytes).
    Removing gd32f5xx_rcu.o(.ARM.exidx.text.rcu_periph_clock_disable), (8 bytes).
    Removing gd32f5xx_rcu.o(.text.rcu_periph_clock_sleep_enable), (36 bytes).
    Removing gd32f5xx_rcu.o(.ARM.exidx.text.rcu_periph_clock_sleep_enable), (8 bytes).
    Removing gd32f5xx_rcu.o(.text.rcu_periph_clock_sleep_disable), (36 bytes).
    Removing gd32f5xx_rcu.o(.ARM.exidx.text.rcu_periph_clock_sleep_disable), (8 bytes).
    Removing gd32f5xx_rcu.o(.text.rcu_periph_reset_enable), (36 bytes).
    Removing gd32f5xx_rcu.o(.ARM.exidx.text.rcu_periph_reset_enable), (8 bytes).
    Removing gd32f5xx_rcu.o(.text.rcu_periph_reset_disable), (36 bytes).
    Removing gd32f5xx_rcu.o(.ARM.exidx.text.rcu_periph_reset_disable), (8 bytes).
    Removing gd32f5xx_rcu.o(.text.rcu_bkp_reset_enable), (18 bytes).
    Removing gd32f5xx_rcu.o(.ARM.exidx.text.rcu_bkp_reset_enable), (8 bytes).
    Removing gd32f5xx_rcu.o(.text.rcu_bkp_reset_disable), (18 bytes).
    Removing gd32f5xx_rcu.o(.ARM.exidx.text.rcu_bkp_reset_disable), (8 bytes).
    Removing gd32f5xx_rcu.o(.text.rcu_system_clock_source_config), (36 bytes).
    Removing gd32f5xx_rcu.o(.ARM.exidx.text.rcu_system_clock_source_config), (8 bytes).
    Removing gd32f5xx_rcu.o(.text.rcu_system_clock_source_get), (16 bytes).
    Removing gd32f5xx_rcu.o(.ARM.exidx.text.rcu_system_clock_source_get), (8 bytes).
    Removing gd32f5xx_rcu.o(.text.rcu_ahb_clock_config), (36 bytes).
    Removing gd32f5xx_rcu.o(.ARM.exidx.text.rcu_ahb_clock_config), (8 bytes).
    Removing gd32f5xx_rcu.o(.text.rcu_apb1_clock_config), (36 bytes).
    Removing gd32f5xx_rcu.o(.ARM.exidx.text.rcu_apb1_clock_config), (8 bytes).
    Removing gd32f5xx_rcu.o(.text.rcu_apb2_clock_config), (36 bytes).
    Removing gd32f5xx_rcu.o(.ARM.exidx.text.rcu_apb2_clock_config), (8 bytes).
    Removing gd32f5xx_rcu.o(.text.rcu_ckout0_config), (42 bytes).
    Removing gd32f5xx_rcu.o(.ARM.exidx.text.rcu_ckout0_config), (8 bytes).
    Removing gd32f5xx_rcu.o(.text.rcu_ckout1_config), (42 bytes).
    Removing gd32f5xx_rcu.o(.ARM.exidx.text.rcu_ckout1_config), (8 bytes).
    Removing gd32f5xx_rcu.o(.text.rcu_pll_config), (222 bytes).
    Removing gd32f5xx_rcu.o(.ARM.exidx.text.rcu_pll_config), (8 bytes).
    Removing gd32f5xx_rcu.o(.text.rcu_plli2s_q_config), (80 bytes).
    Removing gd32f5xx_rcu.o(.ARM.exidx.text.rcu_plli2s_q_config), (8 bytes).
    Removing gd32f5xx_rcu.o(.text.rcu_plli2s_r_config), (80 bytes).
    Removing gd32f5xx_rcu.o(.ARM.exidx.text.rcu_plli2s_r_config), (8 bytes).
    Removing gd32f5xx_rcu.o(.text.rcu_pllsai_p_config), (106 bytes).
    Removing gd32f5xx_rcu.o(.ARM.exidx.text.rcu_pllsai_p_config), (8 bytes).
    Removing gd32f5xx_rcu.o(.text.rcu_pllsai_q_config), (80 bytes).
    Removing gd32f5xx_rcu.o(.ARM.exidx.text.rcu_pllsai_q_config), (8 bytes).
    Removing gd32f5xx_rcu.o(.text.rcu_pllsai_r_config), (80 bytes).
    Removing gd32f5xx_rcu.o(.ARM.exidx.text.rcu_pllsai_r_config), (8 bytes).
    Removing gd32f5xx_rcu.o(.text.rcu_rtc_clock_config), (36 bytes).
    Removing gd32f5xx_rcu.o(.ARM.exidx.text.rcu_rtc_clock_config), (8 bytes).
    Removing gd32f5xx_rcu.o(.text.rcu_rtc_div_config), (36 bytes).
    Removing gd32f5xx_rcu.o(.ARM.exidx.text.rcu_rtc_div_config), (8 bytes).
    Removing gd32f5xx_rcu.o(.text.rcu_i2s_clock_config), (36 bytes).
    Removing gd32f5xx_rcu.o(.ARM.exidx.text.rcu_i2s_clock_config), (8 bytes).
    Removing gd32f5xx_rcu.o(.text.rcu_i2c_clock_config), (118 bytes).
    Removing gd32f5xx_rcu.o(.ARM.exidx.text.rcu_i2c_clock_config), (8 bytes).
    Removing gd32f5xx_rcu.o(.text.rcu_sai_clock_config), (36 bytes).
    Removing gd32f5xx_rcu.o(.ARM.exidx.text.rcu_sai_clock_config), (8 bytes).
    Removing gd32f5xx_rcu.o(.text.rcu_ck48m_clock_config), (36 bytes).
    Removing gd32f5xx_rcu.o(.ARM.exidx.text.rcu_ck48m_clock_config), (8 bytes).
    Removing gd32f5xx_rcu.o(.text.rcu_pll48m_clock_config), (36 bytes).
    Removing gd32f5xx_rcu.o(.ARM.exidx.text.rcu_pll48m_clock_config), (8 bytes).
    Removing gd32f5xx_rcu.o(.text.rcu_timer_clock_prescaler_config), (56 bytes).
    Removing gd32f5xx_rcu.o(.ARM.exidx.text.rcu_timer_clock_prescaler_config), (8 bytes).
    Removing gd32f5xx_rcu.o(.text.rcu_tli_clock_div_config), (36 bytes).
    Removing gd32f5xx_rcu.o(.ARM.exidx.text.rcu_tli_clock_div_config), (8 bytes).
    Removing gd32f5xx_rcu.o(.text.rcu_lxtal_drive_capability_config), (36 bytes).
    Removing gd32f5xx_rcu.o(.ARM.exidx.text.rcu_lxtal_drive_capability_config), (8 bytes).
    Removing gd32f5xx_rcu.o(.text.rcu_flag_get), (50 bytes).
    Removing gd32f5xx_rcu.o(.ARM.exidx.text.rcu_flag_get), (8 bytes).
    Removing gd32f5xx_rcu.o(.text.rcu_osci_on), (36 bytes).
    Removing gd32f5xx_rcu.o(.ARM.exidx.text.rcu_osci_on), (8 bytes).
    Removing gd32f5xx_rcu.o(.text.rcu_osci_off), (36 bytes).
    Removing gd32f5xx_rcu.o(.ARM.exidx.text.rcu_osci_off), (8 bytes).
    Removing gd32f5xx_rcu.o(.text.rcu_osci_bypass_mode_enable), (146 bytes).
    Removing gd32f5xx_rcu.o(.ARM.exidx.text.rcu_osci_bypass_mode_enable), (8 bytes).
    Removing gd32f5xx_rcu.o(.text.rcu_osci_bypass_mode_disable), (146 bytes).
    Removing gd32f5xx_rcu.o(.ARM.exidx.text.rcu_osci_bypass_mode_disable), (8 bytes).
    Removing gd32f5xx_rcu.o(.text.rcu_irc16m_adjust_value_set), (42 bytes).
    Removing gd32f5xx_rcu.o(.ARM.exidx.text.rcu_irc16m_adjust_value_set), (8 bytes).
    Removing gd32f5xx_rcu.o(.text.rcu_spread_spectrum_config), (50 bytes).
    Removing gd32f5xx_rcu.o(.ARM.exidx.text.rcu_spread_spectrum_config), (8 bytes).
    Removing gd32f5xx_rcu.o(.text.rcu_spread_spectrum_enable), (18 bytes).
    Removing gd32f5xx_rcu.o(.ARM.exidx.text.rcu_spread_spectrum_enable), (8 bytes).
    Removing gd32f5xx_rcu.o(.text.rcu_spread_spectrum_disable), (18 bytes).
    Removing gd32f5xx_rcu.o(.ARM.exidx.text.rcu_spread_spectrum_disable), (8 bytes).
    Removing gd32f5xx_rcu.o(.text.rcu_hxtal_clock_monitor_enable), (18 bytes).
    Removing gd32f5xx_rcu.o(.ARM.exidx.text.rcu_hxtal_clock_monitor_enable), (8 bytes).
    Removing gd32f5xx_rcu.o(.text.rcu_hxtal_clock_monitor_disable), (18 bytes).
    Removing gd32f5xx_rcu.o(.ARM.exidx.text.rcu_hxtal_clock_monitor_disable), (8 bytes).
    Removing gd32f5xx_rcu.o(.text.rcu_voltage_key_unlock), (20 bytes).
    Removing gd32f5xx_rcu.o(.ARM.exidx.text.rcu_voltage_key_unlock), (8 bytes).
    Removing gd32f5xx_rcu.o(.text.rcu_deepsleep_voltage_set), (28 bytes).
    Removing gd32f5xx_rcu.o(.ARM.exidx.text.rcu_deepsleep_voltage_set), (8 bytes).
    Removing gd32f5xx_rcu.o(.text.rcu_clock_freq_get), (350 bytes).
    Removing gd32f5xx_rcu.o(.ARM.exidx.text.rcu_clock_freq_get), (8 bytes).
    Removing gd32f5xx_rcu.o(.text.rcu_all_reset_flag_clear), (18 bytes).
    Removing gd32f5xx_rcu.o(.ARM.exidx.text.rcu_all_reset_flag_clear), (8 bytes).
    Removing gd32f5xx_rcu.o(.text.rcu_interrupt_flag_get), (50 bytes).
    Removing gd32f5xx_rcu.o(.ARM.exidx.text.rcu_interrupt_flag_get), (8 bytes).
    Removing gd32f5xx_rcu.o(.text.rcu_interrupt_flag_clear), (36 bytes).
    Removing gd32f5xx_rcu.o(.ARM.exidx.text.rcu_interrupt_flag_clear), (8 bytes).
    Removing gd32f5xx_rcu.o(.text.rcu_interrupt_enable), (36 bytes).
    Removing gd32f5xx_rcu.o(.ARM.exidx.text.rcu_interrupt_enable), (8 bytes).
    Removing gd32f5xx_rcu.o(.text.rcu_interrupt_disable), (36 bytes).
    Removing gd32f5xx_rcu.o(.ARM.exidx.text.rcu_interrupt_disable), (8 bytes).
    Removing gd32f5xx_rcu.o(.rodata.cst16), (16 bytes).
    Removing gd32f5xx_rcu.o(.rodata.cst8), (16 bytes).
    Removing gd32f5xx_usart.o(.text), (0 bytes).
    Removing gd32f5xx_usart.o(.text.usart_deinit), (286 bytes).
    Removing gd32f5xx_usart.o(.ARM.exidx.text.usart_deinit), (8 bytes).
    Removing gd32f5xx_usart.o(.text.usart_baudrate_set), (344 bytes).
    Removing gd32f5xx_usart.o(.ARM.exidx.text.usart_baudrate_set), (8 bytes).
    Removing gd32f5xx_usart.o(.text.usart_parity_config), (30 bytes).
    Removing gd32f5xx_usart.o(.ARM.exidx.text.usart_parity_config), (8 bytes).
    Removing gd32f5xx_usart.o(.text.usart_word_length_set), (30 bytes).
    Removing gd32f5xx_usart.o(.ARM.exidx.text.usart_word_length_set), (8 bytes).
    Removing gd32f5xx_usart.o(.text.usart_stop_bit_set), (30 bytes).
    Removing gd32f5xx_usart.o(.ARM.exidx.text.usart_stop_bit_set), (8 bytes).
    Removing gd32f5xx_usart.o(.text.usart_enable), (18 bytes).
    Removing gd32f5xx_usart.o(.ARM.exidx.text.usart_enable), (8 bytes).
    Removing gd32f5xx_usart.o(.text.usart_disable), (18 bytes).
    Removing gd32f5xx_usart.o(.ARM.exidx.text.usart_disable), (8 bytes).
    Removing gd32f5xx_usart.o(.text.usart_transmit_config), (42 bytes).
    Removing gd32f5xx_usart.o(.ARM.exidx.text.usart_transmit_config), (8 bytes).
    Removing gd32f5xx_usart.o(.text.usart_receive_config), (42 bytes).
    Removing gd32f5xx_usart.o(.ARM.exidx.text.usart_receive_config), (8 bytes).
    Removing gd32f5xx_usart.o(.text.usart_data_first_config), (46 bytes).
    Removing gd32f5xx_usart.o(.ARM.exidx.text.usart_data_first_config), (8 bytes).
    Removing gd32f5xx_usart.o(.text.usart_invert_config), (128 bytes).
    Removing gd32f5xx_usart.o(.ARM.exidx.text.usart_invert_config), (8 bytes).
    Removing gd32f5xx_usart.o(.text.usart_oversample_config), (30 bytes).
    Removing gd32f5xx_usart.o(.ARM.exidx.text.usart_oversample_config), (8 bytes).
    Removing gd32f5xx_usart.o(.text.usart_sample_bit_config), (30 bytes).
    Removing gd32f5xx_usart.o(.ARM.exidx.text.usart_sample_bit_config), (8 bytes).
    Removing gd32f5xx_usart.o(.text.usart_receiver_timeout_enable), (22 bytes).
    Removing gd32f5xx_usart.o(.ARM.exidx.text.usart_receiver_timeout_enable), (8 bytes).
    Removing gd32f5xx_usart.o(.text.usart_receiver_timeout_disable), (22 bytes).
    Removing gd32f5xx_usart.o(.ARM.exidx.text.usart_receiver_timeout_disable), (8 bytes).
    Removing gd32f5xx_usart.o(.text.usart_receiver_timeout_threshold_config), (38 bytes).
    Removing gd32f5xx_usart.o(.ARM.exidx.text.usart_receiver_timeout_threshold_config), (8 bytes).
    Removing gd32f5xx_usart.o(.text.usart_data_transmit), (20 bytes).
    Removing gd32f5xx_usart.o(.ARM.exidx.text.usart_data_transmit), (8 bytes).
    Removing gd32f5xx_usart.o(.ARM.exidx.text.usart_data_receive), (8 bytes).
    Removing gd32f5xx_usart.o(.text.usart_address_config), (38 bytes).
    Removing gd32f5xx_usart.o(.ARM.exidx.text.usart_address_config), (8 bytes).
    Removing gd32f5xx_usart.o(.text.usart_mute_mode_enable), (18 bytes).
    Removing gd32f5xx_usart.o(.ARM.exidx.text.usart_mute_mode_enable), (8 bytes).
    Removing gd32f5xx_usart.o(.text.usart_mute_mode_disable), (18 bytes).
    Removing gd32f5xx_usart.o(.ARM.exidx.text.usart_mute_mode_disable), (8 bytes).
    Removing gd32f5xx_usart.o(.text.usart_mute_mode_wakeup_config), (30 bytes).
    Removing gd32f5xx_usart.o(.ARM.exidx.text.usart_mute_mode_wakeup_config), (8 bytes).
    Removing gd32f5xx_usart.o(.text.usart_lin_mode_enable), (18 bytes).
    Removing gd32f5xx_usart.o(.ARM.exidx.text.usart_lin_mode_enable), (8 bytes).
    Removing gd32f5xx_usart.o(.text.usart_lin_mode_disable), (18 bytes).
    Removing gd32f5xx_usart.o(.ARM.exidx.text.usart_lin_mode_disable), (8 bytes).
    Removing gd32f5xx_usart.o(.text.usart_lin_break_detection_length_config), (34 bytes).
    Removing gd32f5xx_usart.o(.ARM.exidx.text.usart_lin_break_detection_length_config), (8 bytes).
    Removing gd32f5xx_usart.o(.text.usart_send_break), (18 bytes).
    Removing gd32f5xx_usart.o(.ARM.exidx.text.usart_send_break), (8 bytes).
    Removing gd32f5xx_usart.o(.text.usart_halfduplex_enable), (18 bytes).
    Removing gd32f5xx_usart.o(.ARM.exidx.text.usart_halfduplex_enable), (8 bytes).
    Removing gd32f5xx_usart.o(.text.usart_halfduplex_disable), (18 bytes).
    Removing gd32f5xx_usart.o(.ARM.exidx.text.usart_halfduplex_disable), (8 bytes).
    Removing gd32f5xx_usart.o(.text.usart_synchronous_clock_enable), (18 bytes).
    Removing gd32f5xx_usart.o(.ARM.exidx.text.usart_synchronous_clock_enable), (8 bytes).
    Removing gd32f5xx_usart.o(.text.usart_synchronous_clock_disable), (18 bytes).
    Removing gd32f5xx_usart.o(.ARM.exidx.text.usart_synchronous_clock_disable), (8 bytes).
    Removing gd32f5xx_usart.o(.text.usart_synchronous_clock_config), (66 bytes).
    Removing gd32f5xx_usart.o(.ARM.exidx.text.usart_synchronous_clock_config), (8 bytes).
    Removing gd32f5xx_usart.o(.text.usart_guard_time_config), (34 bytes).
    Removing gd32f5xx_usart.o(.ARM.exidx.text.usart_guard_time_config), (8 bytes).
    Removing gd32f5xx_usart.o(.text.usart_smartcard_mode_enable), (18 bytes).
    Removing gd32f5xx_usart.o(.ARM.exidx.text.usart_smartcard_mode_enable), (8 bytes).
    Removing gd32f5xx_usart.o(.text.usart_smartcard_mode_disable), (18 bytes).
    Removing gd32f5xx_usart.o(.ARM.exidx.text.usart_smartcard_mode_disable), (8 bytes).
    Removing gd32f5xx_usart.o(.text.usart_smartcard_mode_nack_enable), (18 bytes).
    Removing gd32f5xx_usart.o(.ARM.exidx.text.usart_smartcard_mode_nack_enable), (8 bytes).
    Removing gd32f5xx_usart.o(.text.usart_smartcard_mode_nack_disable), (18 bytes).
    Removing gd32f5xx_usart.o(.ARM.exidx.text.usart_smartcard_mode_nack_disable), (8 bytes).
    Removing gd32f5xx_usart.o(.text.usart_smartcard_autoretry_config), (44 bytes).
    Removing gd32f5xx_usart.o(.ARM.exidx.text.usart_smartcard_autoretry_config), (8 bytes).
    Removing gd32f5xx_usart.o(.text.usart_block_length_config), (40 bytes).
    Removing gd32f5xx_usart.o(.ARM.exidx.text.usart_block_length_config), (8 bytes).
    Removing gd32f5xx_usart.o(.text.usart_irda_mode_enable), (18 bytes).
    Removing gd32f5xx_usart.o(.ARM.exidx.text.usart_irda_mode_enable), (8 bytes).
    Removing gd32f5xx_usart.o(.text.usart_irda_mode_disable), (18 bytes).
    Removing gd32f5xx_usart.o(.ARM.exidx.text.usart_irda_mode_disable), (8 bytes).
    Removing gd32f5xx_usart.o(.text.usart_prescaler_config), (34 bytes).
    Removing gd32f5xx_usart.o(.ARM.exidx.text.usart_prescaler_config), (8 bytes).
    Removing gd32f5xx_usart.o(.text.usart_irda_lowpower_config), (34 bytes).
    Removing gd32f5xx_usart.o(.ARM.exidx.text.usart_irda_lowpower_config), (8 bytes).
    Removing gd32f5xx_usart.o(.text.usart_hardware_flow_rts_config), (42 bytes).
    Removing gd32f5xx_usart.o(.ARM.exidx.text.usart_hardware_flow_rts_config), (8 bytes).
    Removing gd32f5xx_usart.o(.text.usart_hardware_flow_cts_config), (42 bytes).
    Removing gd32f5xx_usart.o(.ARM.exidx.text.usart_hardware_flow_cts_config), (8 bytes).
    Removing gd32f5xx_usart.o(.text.usart_break_frame_coherence_config), (42 bytes).
    Removing gd32f5xx_usart.o(.ARM.exidx.text.usart_break_frame_coherence_config), (8 bytes).
    Removing gd32f5xx_usart.o(.text.usart_parity_check_coherence_config), (42 bytes).
    Removing gd32f5xx_usart.o(.ARM.exidx.text.usart_parity_check_coherence_config), (8 bytes).
    Removing gd32f5xx_usart.o(.text.usart_hardware_flow_coherence_config), (42 bytes).
    Removing gd32f5xx_usart.o(.ARM.exidx.text.usart_hardware_flow_coherence_config), (8 bytes).
    Removing gd32f5xx_usart.o(.text.usart_dma_receive_config), (42 bytes).
    Removing gd32f5xx_usart.o(.ARM.exidx.text.usart_dma_receive_config), (8 bytes).
    Removing gd32f5xx_usart.o(.text.usart_dma_transmit_config), (42 bytes).
    Removing gd32f5xx_usart.o(.ARM.exidx.text.usart_dma_transmit_config), (8 bytes).
    Removing gd32f5xx_usart.o(.text.usart_flag_get), (48 bytes).
    Removing gd32f5xx_usart.o(.ARM.exidx.text.usart_flag_get), (8 bytes).
    Removing gd32f5xx_usart.o(.text.usart_flag_clear), (70 bytes).
    Removing gd32f5xx_usart.o(.ARM.exidx.text.usart_flag_clear), (8 bytes).
    Removing gd32f5xx_usart.o(.ARM.exidx.text.usart_interrupt_enable), (8 bytes).
    Removing gd32f5xx_usart.o(.ARM.exidx.text.usart_interrupt_disable), (8 bytes).
    Removing gd32f5xx_usart.o(.ARM.exidx.text.usart_interrupt_flag_get), (8 bytes).
    Removing gd32f5xx_usart.o(.text.usart_interrupt_flag_clear), (28 bytes).
    Removing gd32f5xx_usart.o(.ARM.exidx.text.usart_interrupt_flag_clear), (8 bytes).
    Removing gd32f5xx_gpio.o(.text), (0 bytes).
    Removing gd32f5xx_gpio.o(.text.gpio_deinit), (318 bytes).
    Removing gd32f5xx_gpio.o(.ARM.exidx.text.gpio_deinit), (8 bytes).
    Removing gd32f5xx_gpio.o(.text.gpio_mode_set), (156 bytes).
    Removing gd32f5xx_gpio.o(.ARM.exidx.text.gpio_mode_set), (8 bytes).
    Removing gd32f5xx_gpio.o(.text.gpio_output_options_set), (146 bytes).
    Removing gd32f5xx_gpio.o(.ARM.exidx.text.gpio_output_options_set), (8 bytes).
    Removing gd32f5xx_gpio.o(.text.gpio_bit_set), (16 bytes).
    Removing gd32f5xx_gpio.o(.ARM.exidx.text.gpio_bit_set), (8 bytes).
    Removing gd32f5xx_gpio.o(.text.gpio_bit_reset), (16 bytes).
    Removing gd32f5xx_gpio.o(.ARM.exidx.text.gpio_bit_reset), (8 bytes).
    Removing gd32f5xx_gpio.o(.text.gpio_bit_write), (34 bytes).
    Removing gd32f5xx_gpio.o(.ARM.exidx.text.gpio_bit_write), (8 bytes).
    Removing gd32f5xx_gpio.o(.text.gpio_port_write), (20 bytes).
    Removing gd32f5xx_gpio.o(.ARM.exidx.text.gpio_port_write), (8 bytes).
    Removing gd32f5xx_gpio.o(.text.gpio_input_bit_get), (36 bytes).
    Removing gd32f5xx_gpio.o(.ARM.exidx.text.gpio_input_bit_get), (8 bytes).
    Removing gd32f5xx_gpio.o(.text.gpio_input_port_get), (14 bytes).
    Removing gd32f5xx_gpio.o(.ARM.exidx.text.gpio_input_port_get), (8 bytes).
    Removing gd32f5xx_gpio.o(.text.gpio_output_bit_get), (36 bytes).
    Removing gd32f5xx_gpio.o(.ARM.exidx.text.gpio_output_bit_get), (8 bytes).
    Removing gd32f5xx_gpio.o(.text.gpio_output_port_get), (14 bytes).
    Removing gd32f5xx_gpio.o(.ARM.exidx.text.gpio_output_port_get), (8 bytes).
    Removing gd32f5xx_gpio.o(.text.gpio_af_set), (212 bytes).
    Removing gd32f5xx_gpio.o(.ARM.exidx.text.gpio_af_set), (8 bytes).
    Removing gd32f5xx_gpio.o(.text.gpio_pin_lock), (54 bytes).
    Removing gd32f5xx_gpio.o(.ARM.exidx.text.gpio_pin_lock), (8 bytes).
    Removing gd32f5xx_gpio.o(.text.gpio_bit_toggle), (16 bytes).
    Removing gd32f5xx_gpio.o(.ARM.exidx.text.gpio_bit_toggle), (8 bytes).
    Removing gd32f5xx_gpio.o(.text.gpio_port_toggle), (16 bytes).
    Removing gd32f5xx_gpio.o(.ARM.exidx.text.gpio_port_toggle), (8 bytes).
    Removing gd32f5xx_fmc.o(.text), (0 bytes).
    Removing gd32f5xx_fmc.o(.text.fmc_unlock), (48 bytes).
    Removing gd32f5xx_fmc.o(.ARM.exidx.text.fmc_unlock), (8 bytes).
    Removing gd32f5xx_fmc.o(.text.fmc_lock), (18 bytes).
    Removing gd32f5xx_fmc.o(.ARM.exidx.text.fmc_lock), (8 bytes).
    Removing gd32f5xx_fmc.o(.text.fmc_page_erase), (126 bytes).
    Removing gd32f5xx_fmc.o(.ARM.exidx.text.fmc_page_erase), (8 bytes).
    Removing gd32f5xx_fmc.o(.text.fmc_ready_wait), (78 bytes).
    Removing gd32f5xx_fmc.o(.ARM.exidx.text.fmc_ready_wait), (8 bytes).
    Removing gd32f5xx_fmc.o(.text.fmc_sector_erase), (116 bytes).
    Removing gd32f5xx_fmc.o(.ARM.exidx.text.fmc_sector_erase), (8 bytes).
    Removing gd32f5xx_fmc.o(.text.fmc_mass_erase), (82 bytes).
    Removing gd32f5xx_fmc.o(.ARM.exidx.text.fmc_mass_erase), (8 bytes).
    Removing gd32f5xx_fmc.o(.text.fmc_bank0_erase), (78 bytes).
    Removing gd32f5xx_fmc.o(.ARM.exidx.text.fmc_bank0_erase), (8 bytes).
    Removing gd32f5xx_fmc.o(.text.fmc_bank1_erase), (78 bytes).
    Removing gd32f5xx_fmc.o(.ARM.exidx.text.fmc_bank1_erase), (8 bytes).
    Removing gd32f5xx_fmc.o(.text.fmc_doubleword_program), (104 bytes).
    Removing gd32f5xx_fmc.o(.ARM.exidx.text.fmc_doubleword_program), (8 bytes).
    Removing gd32f5xx_fmc.o(.text.fmc_word_program), (104 bytes).
    Removing gd32f5xx_fmc.o(.ARM.exidx.text.fmc_word_program), (8 bytes).
    Removing gd32f5xx_fmc.o(.text.fmc_halfword_program), (108 bytes).
    Removing gd32f5xx_fmc.o(.ARM.exidx.text.fmc_halfword_program), (8 bytes).
    Removing gd32f5xx_fmc.o(.text.fmc_byte_program), (104 bytes).
    Removing gd32f5xx_fmc.o(.ARM.exidx.text.fmc_byte_program), (8 bytes).
    Removing gd32f5xx_fmc.o(.text.fmc_nwa_enable), (18 bytes).
    Removing gd32f5xx_fmc.o(.ARM.exidx.text.fmc_nwa_enable), (8 bytes).
    Removing gd32f5xx_fmc.o(.text.fmc_nwa_disable), (18 bytes).
    Removing gd32f5xx_fmc.o(.ARM.exidx.text.fmc_nwa_disable), (8 bytes).
    Removing gd32f5xx_fmc.o(.text.otp1_read_disable), (24 bytes).
    Removing gd32f5xx_fmc.o(.ARM.exidx.text.otp1_read_disable), (8 bytes).
    Removing gd32f5xx_fmc.o(.text.otp2_rlock_enable), (18 bytes).
    Removing gd32f5xx_fmc.o(.ARM.exidx.text.otp2_rlock_enable), (8 bytes).
    Removing gd32f5xx_fmc.o(.text.ob_unlock), (48 bytes).
    Removing gd32f5xx_fmc.o(.ARM.exidx.text.ob_unlock), (8 bytes).
    Removing gd32f5xx_fmc.o(.text.ob_lock), (18 bytes).
    Removing gd32f5xx_fmc.o(.ARM.exidx.text.ob_lock), (8 bytes).
    Removing gd32f5xx_fmc.o(.text.ob_start), (18 bytes).
    Removing gd32f5xx_fmc.o(.ARM.exidx.text.ob_start), (8 bytes).
    Removing gd32f5xx_fmc.o(.text.ob_erase), (146 bytes).
    Removing gd32f5xx_fmc.o(.ARM.exidx.text.ob_erase), (8 bytes).
    Removing gd32f5xx_fmc.o(.text.ob_write_protection_enable), (172 bytes).
    Removing gd32f5xx_fmc.o(.ARM.exidx.text.ob_write_protection_enable), (8 bytes).
    Removing gd32f5xx_fmc.o(.text.ob_write_protection_disable), (172 bytes).
    Removing gd32f5xx_fmc.o(.ARM.exidx.text.ob_write_protection_disable), (8 bytes).
    Removing gd32f5xx_fmc.o(.text.ob_drp_enable), (186 bytes).
    Removing gd32f5xx_fmc.o(.ARM.exidx.text.ob_drp_enable), (8 bytes).
    Removing gd32f5xx_fmc.o(.text.ob_drp_disable), (170 bytes).
    Removing gd32f5xx_fmc.o(.ARM.exidx.text.ob_drp_disable), (8 bytes).
    Removing gd32f5xx_fmc.o(.text.ob_security_protection_config), (70 bytes).
    Removing gd32f5xx_fmc.o(.ARM.exidx.text.ob_security_protection_config), (8 bytes).
    Removing gd32f5xx_fmc.o(.text.ob_user_write), (72 bytes).
    Removing gd32f5xx_fmc.o(.ARM.exidx.text.ob_user_write), (8 bytes).
    Removing gd32f5xx_fmc.o(.text.ob_user_bor_threshold), (36 bytes).
    Removing gd32f5xx_fmc.o(.ARM.exidx.text.ob_user_bor_threshold), (8 bytes).
    Removing gd32f5xx_fmc.o(.text.ob_boot_mode_config), (36 bytes).
    Removing gd32f5xx_fmc.o(.ARM.exidx.text.ob_boot_mode_config), (8 bytes).
    Removing gd32f5xx_fmc.o(.text.ob_ecc_config), (36 bytes).
    Removing gd32f5xx_fmc.o(.ARM.exidx.text.ob_ecc_config), (8 bytes).
    Removing gd32f5xx_fmc.o(.text.ob_nwa_select), (36 bytes).
    Removing gd32f5xx_fmc.o(.ARM.exidx.text.ob_nwa_select), (8 bytes).
    Removing gd32f5xx_fmc.o(.text.ob_user_get), (16 bytes).
    Removing gd32f5xx_fmc.o(.ARM.exidx.text.ob_user_get), (8 bytes).
    Removing gd32f5xx_fmc.o(.text.ob_write_protection0_get), (44 bytes).
    Removing gd32f5xx_fmc.o(.ARM.exidx.text.ob_write_protection0_get), (8 bytes).
    Removing gd32f5xx_fmc.o(.text.ob_write_protection1_get), (38 bytes).
    Removing gd32f5xx_fmc.o(.ARM.exidx.text.ob_write_protection1_get), (8 bytes).
    Removing gd32f5xx_fmc.o(.text.ob_drp0_get), (68 bytes).
    Removing gd32f5xx_fmc.o(.ARM.exidx.text.ob_drp0_get), (8 bytes).
    Removing gd32f5xx_fmc.o(.text.ob_drp1_get), (62 bytes).
    Removing gd32f5xx_fmc.o(.ARM.exidx.text.ob_drp1_get), (8 bytes).
    Removing gd32f5xx_fmc.o(.text.ob_spc_get), (44 bytes).
    Removing gd32f5xx_fmc.o(.ARM.exidx.text.ob_spc_get), (8 bytes).
    Removing gd32f5xx_fmc.o(.text.ob_user_bor_threshold_get), (16 bytes).
    Removing gd32f5xx_fmc.o(.ARM.exidx.text.ob_user_bor_threshold_get), (8 bytes).
    Removing gd32f5xx_fmc.o(.text.ob_boot_mode_get), (16 bytes).
    Removing gd32f5xx_fmc.o(.ARM.exidx.text.ob_boot_mode_get), (8 bytes).
    Removing gd32f5xx_fmc.o(.text.ob_ecc_get), (16 bytes).
    Removing gd32f5xx_fmc.o(.ARM.exidx.text.ob_ecc_get), (8 bytes).
    Removing gd32f5xx_fmc.o(.text.ob_nwa_get), (16 bytes).
    Removing gd32f5xx_fmc.o(.ARM.exidx.text.ob_nwa_get), (8 bytes).
    Removing gd32f5xx_fmc.o(.text.fmc_flag_get), (40 bytes).
    Removing gd32f5xx_fmc.o(.ARM.exidx.text.fmc_flag_get), (8 bytes).
    Removing gd32f5xx_fmc.o(.text.fmc_flag_clear), (20 bytes).
    Removing gd32f5xx_fmc.o(.ARM.exidx.text.fmc_flag_clear), (8 bytes).
    Removing gd32f5xx_fmc.o(.text.fmc_interrupt_enable), (24 bytes).
    Removing gd32f5xx_fmc.o(.ARM.exidx.text.fmc_interrupt_enable), (8 bytes).
    Removing gd32f5xx_fmc.o(.text.fmc_interrupt_disable), (24 bytes).
    Removing gd32f5xx_fmc.o(.ARM.exidx.text.fmc_interrupt_disable), (8 bytes).
    Removing gd32f5xx_fmc.o(.text.fmc_interrupt_flag_get), (116 bytes).
    Removing gd32f5xx_fmc.o(.ARM.exidx.text.fmc_interrupt_flag_get), (8 bytes).
    Removing gd32f5xx_fmc.o(.text.fmc_interrupt_flag_clear), (20 bytes).
    Removing gd32f5xx_fmc.o(.ARM.exidx.text.fmc_interrupt_flag_clear), (8 bytes).
    Removing gd32f5xx_fmc.o(.text.fmc_state_get), (184 bytes).
    Removing gd32f5xx_fmc.o(.ARM.exidx.text.fmc_state_get), (8 bytes).
    Removing gd32f5xx_fmc.o(.text.efuse_ctrl_unlock), (18 bytes).
    Removing gd32f5xx_fmc.o(.ARM.exidx.text.efuse_ctrl_unlock), (8 bytes).
    Removing gd32f5xx_fmc.o(.text.efuse_ctrl_lock), (18 bytes).
    Removing gd32f5xx_fmc.o(.ARM.exidx.text.efuse_ctrl_lock), (8 bytes).
    Removing gd32f5xx_fmc.o(.text.efuse_user_data_unlock), (18 bytes).
    Removing gd32f5xx_fmc.o(.ARM.exidx.text.efuse_user_data_unlock), (8 bytes).
    Removing gd32f5xx_fmc.o(.text.efuse_user_data_lock), (18 bytes).
    Removing gd32f5xx_fmc.o(.ARM.exidx.text.efuse_user_data_lock), (8 bytes).
    Removing gd32f5xx_fmc.o(.text.efuse_read), (186 bytes).
    Removing gd32f5xx_fmc.o(.ARM.exidx.text.efuse_read), (8 bytes).
    Removing gd32f5xx_fmc.o(.text.efuse_flag_clear), (24 bytes).
    Removing gd32f5xx_fmc.o(.ARM.exidx.text.efuse_flag_clear), (8 bytes).
    Removing gd32f5xx_fmc.o(.text.efuse_flag_get), (40 bytes).
    Removing gd32f5xx_fmc.o(.ARM.exidx.text.efuse_flag_get), (8 bytes).
    Removing gd32f5xx_fmc.o(.text.efuse_ready_wait), (126 bytes).
    Removing gd32f5xx_fmc.o(.ARM.exidx.text.efuse_ready_wait), (8 bytes).
    Removing gd32f5xx_fmc.o(.text.efuse_write), (180 bytes).
    Removing gd32f5xx_fmc.o(.ARM.exidx.text.efuse_write), (8 bytes).
    Removing gd32f5xx_fmc.o(.text.efuse_control_write), (24 bytes).
    Removing gd32f5xx_fmc.o(.ARM.exidx.text.efuse_control_write), (8 bytes).
    Removing gd32f5xx_fmc.o(.text.efuse_user_data_write), (24 bytes).
    Removing gd32f5xx_fmc.o(.ARM.exidx.text.efuse_user_data_write), (8 bytes).
    Removing gd32f5xx_fmc.o(.text.efuse_interrupt_enable), (20 bytes).
    Removing gd32f5xx_fmc.o(.ARM.exidx.text.efuse_interrupt_enable), (8 bytes).
    Removing gd32f5xx_fmc.o(.text.efuse_interrupt_disable), (24 bytes).
    Removing gd32f5xx_fmc.o(.ARM.exidx.text.efuse_interrupt_disable), (8 bytes).
    Removing gd32f5xx_fmc.o(.text.efuse_interrupt_flag_get), (40 bytes).
    Removing gd32f5xx_fmc.o(.ARM.exidx.text.efuse_interrupt_flag_get), (8 bytes).
    Removing gd32f5xx_fmc.o(.text.efuse_interrupt_flag_clear), (24 bytes).
    Removing gd32f5xx_fmc.o(.ARM.exidx.text.efuse_interrupt_flag_clear), (8 bytes).
    Removing gd32f5xx_syscfg.o(.text), (0 bytes).
    Removing gd32f5xx_syscfg.o(.text.syscfg_deinit), (24 bytes).
    Removing gd32f5xx_syscfg.o(.ARM.exidx.text.syscfg_deinit), (8 bytes).
    Removing gd32f5xx_syscfg.o(.text.syscfg_bootmode_config), (36 bytes).
    Removing gd32f5xx_syscfg.o(.ARM.exidx.text.syscfg_bootmode_config), (8 bytes).
    Removing gd32f5xx_syscfg.o(.text.syscfg_fmc_swap_config), (36 bytes).
    Removing gd32f5xx_syscfg.o(.ARM.exidx.text.syscfg_fmc_swap_config), (8 bytes).
    Removing gd32f5xx_syscfg.o(.text.syscfg_exmc_swap_config), (36 bytes).
    Removing gd32f5xx_syscfg.o(.ARM.exidx.text.syscfg_exmc_swap_config), (8 bytes).
    Removing gd32f5xx_syscfg.o(.text.syscfg_exti_line_config), (180 bytes).
    Removing gd32f5xx_syscfg.o(.ARM.exidx.text.syscfg_exti_line_config), (8 bytes).
    Removing gd32f5xx_syscfg.o(.text.syscfg_enet_phy_interface_config), (36 bytes).
    Removing gd32f5xx_syscfg.o(.ARM.exidx.text.syscfg_enet_phy_interface_config), (8 bytes).
    Removing gd32f5xx_syscfg.o(.text.syscfg_compensation_config), (36 bytes).
    Removing gd32f5xx_syscfg.o(.ARM.exidx.text.syscfg_compensation_config), (8 bytes).
    Removing gd32f5xx_syscfg.o(.text.syscfg_cps_cell_ready_get), (38 bytes).
    Removing gd32f5xx_syscfg.o(.ARM.exidx.text.syscfg_cps_cell_ready_get), (8 bytes).
    Removing gd32f5xx_syscfg.o(.text.syscfg_ecc_err_bits_get), (164 bytes).
    Removing gd32f5xx_syscfg.o(.ARM.exidx.text.syscfg_ecc_err_bits_get), (8 bytes).
    Removing gd32f5xx_syscfg.o(.text.syscfg_ecc_address_get), (148 bytes).
    Removing gd32f5xx_syscfg.o(.ARM.exidx.text.syscfg_ecc_address_get), (8 bytes).
    Removing gd32f5xx_syscfg.o(.text.syscfg_flag_get), (40 bytes).
    Removing gd32f5xx_syscfg.o(.ARM.exidx.text.syscfg_flag_get), (8 bytes).
    Removing gd32f5xx_syscfg.o(.text.syscfg_flag_clear), (20 bytes).
    Removing gd32f5xx_syscfg.o(.ARM.exidx.text.syscfg_flag_clear), (8 bytes).
    Removing gd32f5xx_syscfg.o(.text.syscfg_interrupt_enable), (36 bytes).
    Removing gd32f5xx_syscfg.o(.ARM.exidx.text.syscfg_interrupt_enable), (8 bytes).
    Removing gd32f5xx_syscfg.o(.text.syscfg_interrupt_disable), (36 bytes).
    Removing gd32f5xx_syscfg.o(.ARM.exidx.text.syscfg_interrupt_disable), (8 bytes).
    Removing gd32f5xx_syscfg.o(.ARM.exidx.text.syscfg_interrupt_flag_get), (8 bytes).
    Removing gd32f5xx_syscfg.o(.text.syscfg_interrupt_flag_clear), (20 bytes).
    Removing gd32f5xx_syscfg.o(.ARM.exidx.text.syscfg_interrupt_flag_clear), (8 bytes).

663 unused section(s) (total 18862 bytes) removed from the image.

==============================================================================

Image Symbol Table

    Local Symbols

    Symbol Name                              Value     Ov Type        Size  Object(Section)

    ../clib/microlib/init/entry.s            0x00000000   Number         0  entry.o ABSOLUTE
    ../clib/microlib/init/entry.s            0x00000000   Number         0  entry3.o ABSOLUTE
    ../clib/microlib/init/entry.s            0x00000000   Number         0  entry5.o ABSOLUTE
    ../clib/microlib/init/entry.s            0x00000000   Number         0  entry7a.o ABSOLUTE
    ../clib/microlib/init/entry.s            0x00000000   Number         0  entry7b.o ABSOLUTE
    ../clib/microlib/init/entry.s            0x00000000   Number         0  entry8a.o ABSOLUTE
    ../clib/microlib/init/entry.s            0x00000000   Number         0  entry8b.o ABSOLUTE
    ../clib/microlib/init/entry.s            0x00000000   Number         0  entry9a.o ABSOLUTE
    ../clib/microlib/init/entry.s            0x00000000   Number         0  entry9b.o ABSOLUTE
    ../clib/microlib/init/entry.s            0x00000000   Number         0  entry10a.o ABSOLUTE
    ../clib/microlib/init/entry.s            0x00000000   Number         0  entry10b.o ABSOLUTE
    ../clib/microlib/init/entry.s            0x00000000   Number         0  entry11a.o ABSOLUTE
    ../clib/microlib/init/entry.s            0x00000000   Number         0  entry11b.o ABSOLUTE
    ../clib/microlib/malloc/malloc.c         0x00000000   Number         0  malloc1.o ABSOLUTE
    ../clib/microlib/malloc/malloc.c         0x00000000   Number         0  mallocr1.o ABSOLUTE
    ../clib/microlib/malloc/malloc.c         0x00000000   Number         0  malloca1.o ABSOLUTE
    ../clib/microlib/malloc/malloc.c         0x00000000   Number         0  mallocra1.o ABSOLUTE
    ../clib/microlib/malloc/mvars.c          0x00000000   Number         0  mvars.o ABSOLUTE
    ../clib/microlib/string/memcmp.c         0x00000000   Number         0  memcmp.o ABSOLUTE
    ../clib/microlib/string/memcpy.c         0x00000000   Number         0  memcpya.o ABSOLUTE
    ../clib/microlib/string/memcpy.c         0x00000000   Number         0  memcpyb.o ABSOLUTE
    ../clib/microlib/string/memset.c         0x00000000   Number         0  memseta.o ABSOLUTE
    ..\..\..\..\Platform\GD32F5xx\armclang\startup_gd32f5xx_mbl.s 0x00000000   Number         0  startup_gd32f5xx_mbl.o ABSOLUTE
    boot_hal.c                               0x00000000   Number         0  boot_hal.o ABSOLUTE
    boot_record.c                            0x00000000   Number         0  boot_record.o ABSOLUTE
    bootutil_misc.c                          0x00000000   Number         0  bootutil_misc.o ABSOLUTE
    bootutil_public.c                        0x00000000   Number         0  bootutil_public.o ABSOLUTE
    caps.c                                   0x00000000   Number         0  caps.o ABSOLUTE
    dc.s                                     0x00000000   Number         0  dc.o ABSOLUTE
    encrypted.c                              0x00000000   Number         0  encrypted.o ABSOLUTE
    fault_injection_hardening.c              0x00000000   Number         0  fault_injection_hardening.o ABSOLUTE
    fault_injection_hardening_delay_rng_mbedtls.c 0x00000000   Number         0  fault_injection_hardening_delay_rng_mbedtls.o ABSOLUTE
    flash_map.c                              0x00000000   Number         0  flash_map.o ABSOLUTE
    gd32f5xx_fmc.c                           0x00000000   Number         0  gd32f5xx_fmc.o ABSOLUTE
    gd32f5xx_gpio.c                          0x00000000   Number         0  gd32f5xx_gpio.o ABSOLUTE
    gd32f5xx_misc.c                          0x00000000   Number         0  gd32f5xx_misc.o ABSOLUTE
    gd32f5xx_rcu.c                           0x00000000   Number         0  gd32f5xx_rcu.o ABSOLUTE
    gd32f5xx_syscfg.c                        0x00000000   Number         0  gd32f5xx_syscfg.o ABSOLUTE
    gd32f5xx_usart.c                         0x00000000   Number         0  gd32f5xx_usart.o ABSOLUTE
    handlers.s                               0x00000000   Number         0  handlers.o ABSOLUTE
    image_ecdsa.c                            0x00000000   Number         0  image_ecdsa.o ABSOLUTE
    image_ed25519.c                          0x00000000   Number         0  image_ed25519.o ABSOLUTE
    image_rsa.c                              0x00000000   Number         0  image_rsa.o ABSOLUTE
    image_validate.c                         0x00000000   Number         0  image_validate.o ABSOLUTE
    init.s                                   0x00000000   Number         0  init.o ABSOLUTE
    keys.c                                   0x00000000   Number         0  keys.o ABSOLUTE
    loader.c                                 0x00000000   Number         0  loader.o ABSOLUTE
    mbl.c                                    0x00000000   Number         0  mbl.o ABSOLUTE
    mbl_gd32f5xx_it.c                        0x00000000   Number         0  mbl_gd32f5xx_it.o ABSOLUTE
    mbl_systick.c                            0x00000000   Number         0  mbl_systick.o ABSOLUTE
    swap_misc.c                              0x00000000   Number         0  swap_misc.o ABSOLUTE
    swap_move.c                              0x00000000   Number         0  swap_move.o ABSOLUTE
    swap_scratch.c                           0x00000000   Number         0  swap_scratch.o ABSOLUTE
    system_gd32f5xx.c                        0x00000000   Number         0  system_gd32f5xx.o ABSOLUTE
    tlv.c                                    0x00000000   Number         0  tlv.o ABSOLUTE
    RESET                                    0x08061200   Section      972  startup_gd32f5xx_mbl.o(RESET)
    .ARM.Collect$$$$00000000                 0x080615cc   Section        0  entry.o(.ARM.Collect$$$$00000000)
    .ARM.Collect$$$$00000002                 0x080615cc   Section        4  entry3.o(.ARM.Collect$$$$00000002)
    .ARM.Collect$$$$00000004                 0x080615d0   Section        4  entry5.o(.ARM.Collect$$$$00000004)
    .ARM.Collect$$$$00000008                 0x080615d4   Section        0  entry7b.o(.ARM.Collect$$$$00000008)
    .ARM.Collect$$$$0000000A                 0x080615d4   Section        0  entry8b.o(.ARM.Collect$$$$0000000A)
    .ARM.Collect$$$$0000000B                 0x080615d4   Section        8  entry9a.o(.ARM.Collect$$$$0000000B)
    __lit__00000000                          0x080615dc   Data           4  entry3.o(.ARM.Collect$$$$00002713)
    .ARM.Collect$$$$0000000D                 0x080615dc   Section        0  entry10a.o(.ARM.Collect$$$$0000000D)
    .ARM.Collect$$$$0000000F                 0x080615dc   Section        0  entry11a.o(.ARM.Collect$$$$0000000F)
    .ARM.Collect$$$$00002713                 0x080615dc   Section        4  entry3.o(.ARM.Collect$$$$00002713)
    $v0                                      0x080615e0   Number         0  startup_gd32f5xx_mbl.o(.text)
    .text                                    0x080615e0   Section       36  startup_gd32f5xx_mbl.o(.text)
    .text                                    0x08061604   Section        0  memcpya.o(.text)
    .text                                    0x08061628   Section        0  memseta.o(.text)
    .text                                    0x0806164c   Section        0  memcmp.o(.text)
    .text                                    0x08061668   Section       48  init.o(.text)
    [Anonymous Symbol]                       0x08061698   Section        0  mbl_gd32f5xx_it.o(.text.BusFault_Handler)
    [Anonymous Symbol]                       0x0806169c   Section        0  mbl_gd32f5xx_it.o(.text.DebugMon_Handler)
    [Anonymous Symbol]                       0x080616a0   Section        0  mbl_gd32f5xx_it.o(.text.HardFault_Handler)
    [Anonymous Symbol]                       0x080616b4   Section        0  mbl_gd32f5xx_it.o(.text.HardFault_Handler_c)
    [Anonymous Symbol]                       0x08061818   Section        0  mbl_gd32f5xx_it.o(.text.MemManage_Handler)
    [Anonymous Symbol]                       0x0806181c   Section        0  mbl_gd32f5xx_it.o(.text.NMI_Handler)
    [Anonymous Symbol]                       0x08061928   Section        0  mbl_gd32f5xx_it.o(.text.PendSV_Handler)
    [Anonymous Symbol]                       0x0806192c   Section        0  mbl_gd32f5xx_it.o(.text.SVC_Handler)
    SysTick_Config                           0x08061931   Thumb Code    82  mbl_systick.o(.text.SysTick_Config)
    [Anonymous Symbol]                       0x08061930   Section        0  mbl_systick.o(.text.SysTick_Config)
    [Anonymous Symbol]                       0x08061984   Section        0  mbl_gd32f5xx_it.o(.text.SysTick_Handler)
    [Anonymous Symbol]                       0x0806198c   Section        0  system_gd32f5xx.o(.text.SystemInit)
    [Anonymous Symbol]                       0x08061a88   Section        0  mbl_gd32f5xx_it.o(.text.UART6_IRQHandler)
    [Anonymous Symbol]                       0x08061b94   Section        0  mbl_gd32f5xx_it.o(.text.UsageFault_Handler)
    __NVIC_SetPriority                       0x08061b99   Thumb Code    58  mbl_systick.o(.text.__NVIC_SetPriority)
    [Anonymous Symbol]                       0x08061b98   Section        0  mbl_systick.o(.text.__NVIC_SetPriority)
    __NVIC_SystemReset                       0x08061bd5   Thumb Code    38  mbl.o(.text.__NVIC_SystemReset)
    [Anonymous Symbol]                       0x08061bd4   Section        0  mbl.o(.text.__NVIC_SystemReset)
    [Anonymous Symbol]                       0x08061bfc   Section        0  boot_hal.o(.text.__aeabi_assert)
    boot_add_shared_data                     0x08061c35   Thumb Code    14  loader.o(.text.boot_add_shared_data)
    [Anonymous Symbol]                       0x08061c34   Section        0  loader.o(.text.boot_add_shared_data)
    boot_check_header_erased                 0x08061c45   Thumb Code   106  loader.o(.text.boot_check_header_erased)
    [Anonymous Symbol]                       0x08061c44   Section        0  loader.o(.text.boot_check_header_erased)
    boot_complete_partial_swap               0x08061cb1   Thumb Code   232  loader.o(.text.boot_complete_partial_swap)
    [Anonymous Symbol]                       0x08061cb0   Section        0  loader.o(.text.boot_complete_partial_swap)
    boot_copy_done_off                       0x08061d99   Thumb Code    18  bootutil_public.o(.text.boot_copy_done_off)
    [Anonymous Symbol]                       0x08061d98   Section        0  bootutil_public.o(.text.boot_copy_done_off)
    [Anonymous Symbol]                       0x08061dac   Section        0  loader.o(.text.boot_copy_region)
    boot_copy_sz                             0x08061ff9   Thumb Code    98  swap_scratch.o(.text.boot_copy_sz)
    [Anonymous Symbol]                       0x08061ff8   Section        0  swap_scratch.o(.text.boot_copy_sz)
    boot_data_is_set_to                      0x0806205d   Thumb Code    90  loader.o(.text.boot_data_is_set_to)
    [Anonymous Symbol]                       0x0806205c   Section        0  loader.o(.text.boot_data_is_set_to)
    [Anonymous Symbol]                       0x080620b8   Section        0  encrypted.o(.text.boot_enc_decrypt)
    [Anonymous Symbol]                       0x08062138   Section        0  encrypted.o(.text.boot_enc_drop)
    [Anonymous Symbol]                       0x0806215c   Section        0  encrypted.o(.text.boot_enc_init)
    boot_enc_key_off                         0x08062181   Thumb Code    30  bootutil_misc.o(.text.boot_enc_key_off)
    [Anonymous Symbol]                       0x08062180   Section        0  bootutil_misc.o(.text.boot_enc_key_off)
    [Anonymous Symbol]                       0x080621a0   Section        0  encrypted.o(.text.boot_enc_load)
    [Anonymous Symbol]                       0x0806228c   Section        0  encrypted.o(.text.boot_enc_set_key)
    [Anonymous Symbol]                       0x080622fc   Section        0  encrypted.o(.text.boot_enc_valid)
    [Anonymous Symbol]                       0x0806234c   Section        0  encrypted.o(.text.boot_encrypt)
    [Anonymous Symbol]                       0x08062420   Section        0  loader.o(.text.boot_erase_region)
    [Anonymous Symbol]                       0x08062438   Section        0  bootutil_misc.o(.text.boot_fih_memequal)
    [Anonymous Symbol]                       0x08062450   Section        0  bootutil_misc.o(.text.boot_find_status)
    boot_flag_decode                         0x080624e9   Thumb Code    34  bootutil_public.o(.text.boot_flag_decode)
    [Anonymous Symbol]                       0x080624e8   Section        0  bootutil_public.o(.text.boot_flag_decode)
    [Anonymous Symbol]                       0x0806250c   Section        0  loader.o(.text.boot_go)
    FIH_LABEL_FIH_CALL_START_12              0x08062526   Number         0  loader.o(.text.boot_go)
    FIH_LABEL_FIH_CALL_END_13                0x0806254a   Number         0  loader.o(.text.boot_go)
    boot_image_check                         0x0806255d   Thumb Code   248  loader.o(.text.boot_image_check)
    [Anonymous Symbol]                       0x0806255c   Section        0  loader.o(.text.boot_image_check)
    FIH_LABEL_FIH_CALL_START_18              0x080625f8   Number         0  loader.o(.text.boot_image_check)
    FIH_LABEL_FIH_CALL_END_19                0x08062644   Number         0  loader.o(.text.boot_image_check)
    boot_image_ok_off                        0x08062655   Thumb Code    22  bootutil_public.o(.text.boot_image_ok_off)
    [Anonymous Symbol]                       0x08062654   Section        0  bootutil_public.o(.text.boot_image_ok_off)
    boot_img_hdr                             0x0806266d   Thumb Code    20  loader.o(.text.boot_img_hdr)
    [Anonymous Symbol]                       0x0806266c   Section        0  loader.o(.text.boot_img_hdr)
    boot_img_num_sectors                     0x08062681   Thumb Code    22  swap_misc.o(.text.boot_img_num_sectors)
    [Anonymous Symbol]                       0x08062680   Section        0  swap_misc.o(.text.boot_img_num_sectors)
    boot_img_num_sectors                     0x08062699   Thumb Code    22  swap_scratch.o(.text.boot_img_num_sectors)
    [Anonymous Symbol]                       0x08062698   Section        0  swap_scratch.o(.text.boot_img_num_sectors)
    boot_img_sector_off                      0x080626b1   Thumb Code    62  swap_misc.o(.text.boot_img_sector_off)
    [Anonymous Symbol]                       0x080626b0   Section        0  swap_misc.o(.text.boot_img_sector_off)
    boot_img_sector_off                      0x080626f1   Thumb Code    62  swap_scratch.o(.text.boot_img_sector_off)
    [Anonymous Symbol]                       0x080626f0   Section        0  swap_scratch.o(.text.boot_img_sector_off)
    boot_img_sector_size                     0x08062731   Thumb Code    36  swap_misc.o(.text.boot_img_sector_size)
    [Anonymous Symbol]                       0x08062730   Section        0  swap_misc.o(.text.boot_img_sector_size)
    boot_img_sector_size                     0x08062755   Thumb Code    36  swap_scratch.o(.text.boot_img_sector_size)
    [Anonymous Symbol]                       0x08062754   Section        0  swap_scratch.o(.text.boot_img_sector_size)
    boot_img_slot_off                        0x08062779   Thumb Code    28  loader.o(.text.boot_img_slot_off)
    [Anonymous Symbol]                       0x08062778   Section        0  loader.o(.text.boot_img_slot_off)
    boot_initialize_area                     0x08062795   Thumb Code   132  loader.o(.text.boot_initialize_area)
    [Anonymous Symbol]                       0x08062794   Section        0  loader.o(.text.boot_initialize_area)
    boot_is_header_valid                     0x08062819   Thumb Code   102  loader.o(.text.boot_is_header_valid)
    [Anonymous Symbol]                       0x08062818   Section        0  loader.o(.text.boot_is_header_valid)
    [Anonymous Symbol]                       0x08062880   Section        0  bootutil_public.o(.text.boot_magic_compatible_check)
    boot_magic_decode                        0x080628d1   Thumb Code    44  bootutil_misc.o(.text.boot_magic_decode)
    [Anonymous Symbol]                       0x080628d0   Section        0  bootutil_misc.o(.text.boot_magic_decode)
    boot_magic_decode                        0x080628fd   Thumb Code    44  bootutil_public.o(.text.boot_magic_decode)
    [Anonymous Symbol]                       0x080628fc   Section        0  bootutil_public.o(.text.boot_magic_decode)
    boot_magic_off                           0x08062929   Thumb Code    18  bootutil_misc.o(.text.boot_magic_off)
    [Anonymous Symbol]                       0x08062928   Section        0  bootutil_misc.o(.text.boot_magic_off)
    boot_magic_off                           0x0806293d   Thumb Code    18  bootutil_public.o(.text.boot_magic_off)
    [Anonymous Symbol]                       0x0806293c   Section        0  bootutil_public.o(.text.boot_magic_off)
    boot_perform_update                      0x08062951   Thumb Code   172  loader.o(.text.boot_perform_update)
    [Anonymous Symbol]                       0x08062950   Section        0  loader.o(.text.boot_perform_update)
    boot_prepare_image_for_update            0x080629fd   Thumb Code   448  loader.o(.text.boot_prepare_image_for_update)
    [Anonymous Symbol]                       0x080629fc   Section        0  loader.o(.text.boot_prepare_image_for_update)
    FIH_LABEL_FIH_CALL_START_2               0x08062b5e   Number         0  loader.o(.text.boot_prepare_image_for_update)
    FIH_LABEL_FIH_CALL_END_3                 0x08062b7e   Number         0  loader.o(.text.boot_prepare_image_for_update)
    boot_read_copy_done                      0x08062bbd   Thumb Code    34  bootutil_public.o(.text.boot_read_copy_done)
    [Anonymous Symbol]                       0x08062bbc   Section        0  bootutil_public.o(.text.boot_read_copy_done)
    [Anonymous Symbol]                       0x08062be0   Section        0  bootutil_misc.o(.text.boot_read_enc_key)
    boot_read_flag                           0x08062c19   Thumb Code    88  bootutil_public.o(.text.boot_read_flag)
    [Anonymous Symbol]                       0x08062c18   Section        0  bootutil_public.o(.text.boot_read_flag)
    [Anonymous Symbol]                       0x08062c70   Section        0  swap_scratch.o(.text.boot_read_image_header)
    boot_read_image_headers                  0x08062cc5   Thumb Code   124  loader.o(.text.boot_read_image_headers)
    [Anonymous Symbol]                       0x08062cc4   Section        0  loader.o(.text.boot_read_image_headers)
    [Anonymous Symbol]                       0x08062d40   Section        0  bootutil_public.o(.text.boot_read_image_ok)
    boot_read_image_size                     0x08062d65   Thumb Code   238  loader.o(.text.boot_read_image_size)
    [Anonymous Symbol]                       0x08062d64   Section        0  loader.o(.text.boot_read_image_size)
    boot_read_sectors                        0x08062e55   Thumb Code   116  loader.o(.text.boot_read_sectors)
    [Anonymous Symbol]                       0x08062e54   Section        0  loader.o(.text.boot_read_sectors)
    [Anonymous Symbol]                       0x08062ec8   Section        0  bootutil_misc.o(.text.boot_read_swap_size)
    [Anonymous Symbol]                       0x08062eec   Section        0  bootutil_public.o(.text.boot_read_swap_state)
    [Anonymous Symbol]                       0x08062fd0   Section        0  bootutil_public.o(.text.boot_read_swap_state_by_id)
    boot_scratch_area_size                   0x0806300d   Thumb Code    18  swap_scratch.o(.text.boot_scratch_area_size)
    [Anonymous Symbol]                       0x0806300c   Section        0  swap_scratch.o(.text.boot_scratch_area_size)
    boot_scratch_trailer_sz                  0x08063021   Thumb Code    28  bootutil_misc.o(.text.boot_scratch_trailer_sz)
    [Anonymous Symbol]                       0x08063020   Section        0  bootutil_misc.o(.text.boot_scratch_trailer_sz)
    [Anonymous Symbol]                       0x0806303c   Section        0  swap_scratch.o(.text.boot_slots_compatible)
    [Anonymous Symbol]                       0x0806325c   Section        0  loader.o(.text.boot_state_clear)
    [Anonymous Symbol]                       0x08063288   Section        0  bootutil_misc.o(.text.boot_status_entries)
    boot_status_entry_sz                     0x080632e5   Thumb Code    14  bootutil_misc.o(.text.boot_status_entry_sz)
    [Anonymous Symbol]                       0x080632e4   Section        0  bootutil_misc.o(.text.boot_status_entry_sz)
    [Anonymous Symbol]                       0x080632f4   Section        0  swap_scratch.o(.text.boot_status_internal_off)
    [Anonymous Symbol]                       0x0806331c   Section        0  loader.o(.text.boot_status_is_reset)
    [Anonymous Symbol]                       0x08063358   Section        0  bootutil_misc.o(.text.boot_status_off)
    [Anonymous Symbol]                       0x080633c0   Section        0  loader.o(.text.boot_status_reset)
    [Anonymous Symbol]                       0x08063400   Section        0  bootutil_misc.o(.text.boot_status_sz)
    boot_swap_image                          0x08063415   Thumb Code   892  loader.o(.text.boot_swap_image)
    [Anonymous Symbol]                       0x08063414   Section        0  loader.o(.text.boot_swap_image)
    [Anonymous Symbol]                       0x08063790   Section        0  bootutil_public.o(.text.boot_swap_info_off)
    boot_swap_sectors                        0x080637a5   Thumb Code  1662  swap_scratch.o(.text.boot_swap_sectors)
    [Anonymous Symbol]                       0x080637a4   Section        0  swap_scratch.o(.text.boot_swap_sectors)
    boot_swap_size_off                       0x08063e25   Thumb Code    18  bootutil_misc.o(.text.boot_swap_size_off)
    [Anonymous Symbol]                       0x08063e24   Section        0  bootutil_misc.o(.text.boot_swap_size_off)
    [Anonymous Symbol]                       0x08063e38   Section        0  bootutil_public.o(.text.boot_swap_type_multi)
    boot_trailer_info_sz                     0x08064039   Thumb Code     4  bootutil_misc.o(.text.boot_trailer_info_sz)
    [Anonymous Symbol]                       0x08064038   Section        0  bootutil_misc.o(.text.boot_trailer_info_sz)
    [Anonymous Symbol]                       0x0806403c   Section        0  bootutil_misc.o(.text.boot_trailer_sz)
    boot_u32_safe_add                        0x08064059   Thumb Code    54  loader.o(.text.boot_u32_safe_add)
    [Anonymous Symbol]                       0x08064058   Section        0  loader.o(.text.boot_u32_safe_add)
    boot_update_hw_rollback_protection       0x08064091   Thumb Code    10  loader.o(.text.boot_update_hw_rollback_protection)
    [Anonymous Symbol]                       0x08064090   Section        0  loader.o(.text.boot_update_hw_rollback_protection)
    boot_validate_slot                       0x0806409d   Thumb Code   340  loader.o(.text.boot_validate_slot)
    [Anonymous Symbol]                       0x0806409c   Section        0  loader.o(.text.boot_validate_slot)
    FIH_LABEL_FIH_CALL_START_4               0x0806413a   Number         0  loader.o(.text.boot_validate_slot)
    FIH_LABEL_FIH_CALL_END_5                 0x0806415c   Number         0  loader.o(.text.boot_validate_slot)
    boot_validated_swap_type                 0x080641f1   Thumb Code   146  loader.o(.text.boot_validated_swap_type)
    [Anonymous Symbol]                       0x080641f0   Section        0  loader.o(.text.boot_validated_swap_type)
    FIH_LABEL_FIH_CALL_START_16              0x08064226   Number         0  loader.o(.text.boot_validated_swap_type)
    FIH_LABEL_FIH_CALL_END_17                0x08064246   Number         0  loader.o(.text.boot_validated_swap_type)
    boot_version_cmp                         0x08064285   Thumb Code   144  loader.o(.text.boot_version_cmp)
    [Anonymous Symbol]                       0x08064284   Section        0  loader.o(.text.boot_version_cmp)
    [Anonymous Symbol]                       0x08064314   Section        0  bootutil_public.o(.text.boot_write_copy_done)
    [Anonymous Symbol]                       0x08064370   Section        0  bootutil_misc.o(.text.boot_write_enc_key)
    [Anonymous Symbol]                       0x080643f8   Section        0  bootutil_public.o(.text.boot_write_image_ok)
    [Anonymous Symbol]                       0x08064454   Section        0  bootutil_public.o(.text.boot_write_magic)
    [Anonymous Symbol]                       0x08064518   Section        0  loader.o(.text.boot_write_status)
    [Anonymous Symbol]                       0x080645c0   Section        0  bootutil_public.o(.text.boot_write_swap_info)
    [Anonymous Symbol]                       0x08064690   Section        0  bootutil_misc.o(.text.boot_write_swap_size)
    boot_write_sz                            0x080646f1   Thumb Code    48  loader.o(.text.boot_write_sz)
    [Anonymous Symbol]                       0x080646f0   Section        0  loader.o(.text.boot_write_sz)
    [Anonymous Symbol]                       0x08064720   Section        0  bootutil_public.o(.text.boot_write_trailer)
    [Anonymous Symbol]                       0x080647ac   Section        0  bootutil_public.o(.text.boot_write_trailer_flag)
    bootutil_aes_ctr_drop                    0x080647d5   Thumb Code     8  encrypted.o(.text.bootutil_aes_ctr_drop)
    [Anonymous Symbol]                       0x080647d4   Section        0  encrypted.o(.text.bootutil_aes_ctr_drop)
    bootutil_aes_ctr_encrypt                 0x080647dd   Thumb Code    58  encrypted.o(.text.bootutil_aes_ctr_encrypt)
    [Anonymous Symbol]                       0x080647dc   Section        0  encrypted.o(.text.bootutil_aes_ctr_encrypt)
    bootutil_aes_ctr_init                    0x08064819   Thumb Code    16  encrypted.o(.text.bootutil_aes_ctr_init)
    [Anonymous Symbol]                       0x08064818   Section        0  encrypted.o(.text.bootutil_aes_ctr_init)
    bootutil_aes_ctr_set_key                 0x08064829   Thumb Code    22  encrypted.o(.text.bootutil_aes_ctr_set_key)
    [Anonymous Symbol]                       0x08064828   Section        0  encrypted.o(.text.bootutil_aes_ctr_set_key)
    [Anonymous Symbol]                       0x08064840   Section        0  bootutil_public.o(.text.bootutil_buffer_is_erased)
    bootutil_find_key                        0x080648b1   Thumb Code   158  image_validate.o(.text.bootutil_find_key)
    [Anonymous Symbol]                       0x080648b0   Section        0  image_validate.o(.text.bootutil_find_key)
    bootutil_img_hash                        0x08064951   Thumb Code   488  image_validate.o(.text.bootutil_img_hash)
    [Anonymous Symbol]                       0x08064950   Section        0  image_validate.o(.text.bootutil_img_hash)
    [Anonymous Symbol]                       0x08064b38   Section        0  image_validate.o(.text.bootutil_img_validate)
    FIH_LABEL_FIH_CALL_START_0               0x08064c56   Number         0  image_validate.o(.text.bootutil_img_validate)
    FIH_LABEL_FIH_CALL_END_1                 0x08064c76   Number         0  image_validate.o(.text.bootutil_img_validate)
    FIH_LABEL_FIH_CALL_START_2               0x08064d46   Number         0  image_validate.o(.text.bootutil_img_validate)
    FIH_LABEL_FIH_CALL_END_3                 0x08064d72   Number         0  image_validate.o(.text.bootutil_img_validate)
    [Anonymous Symbol]                       0x08064dbc   Section        0  bootutil_misc.o(.text.bootutil_max_image_size)
    bootutil_rsa_drop                        0x08064dcd   Thumb Code    16  encrypted.o(.text.bootutil_rsa_drop)
    [Anonymous Symbol]                       0x08064dcc   Section        0  encrypted.o(.text.bootutil_rsa_drop)
    bootutil_rsa_init                        0x08064ddd   Thumb Code    20  encrypted.o(.text.bootutil_rsa_init)
    [Anonymous Symbol]                       0x08064ddc   Section        0  encrypted.o(.text.bootutil_rsa_init)
    bootutil_rsa_oaep_decrypt                0x08064df1   Thumb Code    72  encrypted.o(.text.bootutil_rsa_oaep_decrypt)
    [Anonymous Symbol]                       0x08064df0   Section        0  encrypted.o(.text.bootutil_rsa_oaep_decrypt)
    bootutil_rsa_parse_private_key           0x08064e39   Thumb Code   328  encrypted.o(.text.bootutil_rsa_parse_private_key)
    [Anonymous Symbol]                       0x08064e38   Section        0  encrypted.o(.text.bootutil_rsa_parse_private_key)
    bootutil_sha_drop                        0x08064f81   Thumb Code    10  image_validate.o(.text.bootutil_sha_drop)
    [Anonymous Symbol]                       0x08064f80   Section        0  image_validate.o(.text.bootutil_sha_drop)
    bootutil_sha_finish                      0x08064f8d   Thumb Code    20  image_validate.o(.text.bootutil_sha_finish)
    [Anonymous Symbol]                       0x08064f8c   Section        0  image_validate.o(.text.bootutil_sha_finish)
    bootutil_sha_init                        0x08064fa1   Thumb Code    24  image_validate.o(.text.bootutil_sha_init)
    [Anonymous Symbol]                       0x08064fa0   Section        0  image_validate.o(.text.bootutil_sha_init)
    bootutil_sha_update                      0x08064fb9   Thumb Code    24  image_validate.o(.text.bootutil_sha_update)
    [Anonymous Symbol]                       0x08064fb8   Section        0  image_validate.o(.text.bootutil_sha_update)
    [Anonymous Symbol]                       0x08064fd0   Section        0  tlv.o(.text.bootutil_tlv_iter_begin)
    [Anonymous Symbol]                       0x080650e4   Section        0  tlv.o(.text.bootutil_tlv_iter_next)
    [Anonymous Symbol]                       0x080651e8   Section        0  image_rsa.o(.text.bootutil_verify_sig)
    check_downgrade_prevention               0x08065269   Thumb Code   242  loader.o(.text.check_downgrade_prevention)
    [Anonymous Symbol]                       0x08065268   Section        0  loader.o(.text.check_downgrade_prevention)
    close_all_flash_areas                    0x0806535d   Thumb Code    62  loader.o(.text.close_all_flash_areas)
    [Anonymous Symbol]                       0x0806535c   Section        0  loader.o(.text.close_all_flash_areas)
    [Anonymous Symbol]                       0x0806539c   Section        0  loader.o(.text.context_boot_go)
    FIH_LABEL_FIH_CALL_START_0               0x0806561e   Number         0  loader.o(.text.context_boot_go)
    FIH_LABEL_FIH_CALL_END_1                 0x0806563e   Number         0  loader.o(.text.context_boot_go)
    [Anonymous Symbol]                       0x08065720   Section        0  mbl_systick.o(.text.delay_1ms)
    [Anonymous Symbol]                       0x08065748   Section        0  mbl_systick.o(.text.delay_decrement)
    do_boot                                  0x08065769   Thumb Code   114  mbl.o(.text.do_boot)
    [Anonymous Symbol]                       0x08065768   Section        0  mbl.o(.text.do_boot)
    fill_rsp                                 0x080657dd   Thumb Code    60  loader.o(.text.fill_rsp)
    [Anonymous Symbol]                       0x080657dc   Section        0  loader.o(.text.fill_rsp)
    [Anonymous Symbol]                       0x08065818   Section        0  flash_map.o(.text.flash_area_align)
    [Anonymous Symbol]                       0x08065824   Section        0  flash_map.o(.text.flash_area_close)
    [Anonymous Symbol]                       0x0806582c   Section        0  flash_map.o(.text.flash_area_erase)
    [Anonymous Symbol]                       0x08065854   Section        0  flash_map.o(.text.flash_area_erased_val)
    flash_area_get_device_id                 0x08065861   Thumb Code    12  loader.o(.text.flash_area_get_device_id)
    [Anonymous Symbol]                       0x08065860   Section        0  loader.o(.text.flash_area_get_device_id)
    flash_area_get_id                        0x0806586d   Thumb Code    12  bootutil_misc.o(.text.flash_area_get_id)
    [Anonymous Symbol]                       0x0806586c   Section        0  bootutil_misc.o(.text.flash_area_get_id)
    flash_area_get_id                        0x08065879   Thumb Code    12  bootutil_public.o(.text.flash_area_get_id)
    [Anonymous Symbol]                       0x08065878   Section        0  bootutil_public.o(.text.flash_area_get_id)
    flash_area_get_id                        0x08065885   Thumb Code    12  encrypted.o(.text.flash_area_get_id)
    [Anonymous Symbol]                       0x08065884   Section        0  encrypted.o(.text.flash_area_get_id)
    flash_area_get_id                        0x08065891   Thumb Code    12  image_validate.o(.text.flash_area_get_id)
    [Anonymous Symbol]                       0x08065890   Section        0  image_validate.o(.text.flash_area_get_id)
    flash_area_get_id                        0x0806589d   Thumb Code    12  loader.o(.text.flash_area_get_id)
    [Anonymous Symbol]                       0x0806589c   Section        0  loader.o(.text.flash_area_get_id)
    flash_area_get_id                        0x080658a9   Thumb Code    12  swap_misc.o(.text.flash_area_get_id)
    [Anonymous Symbol]                       0x080658a8   Section        0  swap_misc.o(.text.flash_area_get_id)
    flash_area_get_off                       0x080658b5   Thumb Code    12  bootutil_misc.o(.text.flash_area_get_off)
    [Anonymous Symbol]                       0x080658b4   Section        0  bootutil_misc.o(.text.flash_area_get_off)
    flash_area_get_off                       0x080658c1   Thumb Code    12  bootutil_public.o(.text.flash_area_get_off)
    [Anonymous Symbol]                       0x080658c0   Section        0  bootutil_public.o(.text.flash_area_get_off)
    flash_area_get_off                       0x080658cd   Thumb Code    12  loader.o(.text.flash_area_get_off)
    [Anonymous Symbol]                       0x080658cc   Section        0  loader.o(.text.flash_area_get_off)
    [Anonymous Symbol]                       0x080658d8   Section        0  flash_map.o(.text.flash_area_get_sectors)
    flash_area_get_size                      0x080659e5   Thumb Code    12  bootutil_misc.o(.text.flash_area_get_size)
    [Anonymous Symbol]                       0x080659e4   Section        0  bootutil_misc.o(.text.flash_area_get_size)
    flash_area_get_size                      0x080659f1   Thumb Code    12  bootutil_public.o(.text.flash_area_get_size)
    [Anonymous Symbol]                       0x080659f0   Section        0  bootutil_public.o(.text.flash_area_get_size)
    flash_area_get_size                      0x080659fd   Thumb Code    12  loader.o(.text.flash_area_get_size)
    [Anonymous Symbol]                       0x080659fc   Section        0  loader.o(.text.flash_area_get_size)
    flash_area_get_size                      0x08065a09   Thumb Code    12  swap_scratch.o(.text.flash_area_get_size)
    [Anonymous Symbol]                       0x08065a08   Section        0  swap_scratch.o(.text.flash_area_get_size)
    [Anonymous Symbol]                       0x08065a14   Section        0  flash_map.o(.text.flash_area_id_from_multi_image_slot)
    [Anonymous Symbol]                       0x08065a60   Section        0  flash_map.o(.text.flash_area_id_to_multi_image_slot)
    [Anonymous Symbol]                       0x08065aa0   Section        0  flash_map.o(.text.flash_area_open)
    [Anonymous Symbol]                       0x08065b10   Section        0  flash_map.o(.text.flash_area_read)
    [Anonymous Symbol]                       0x08065b3c   Section        0  flash_map.o(.text.flash_area_write)
    [Anonymous Symbol]                       0x08065b68   Section        0  flash_map.o(.text.flash_device_base)
    flash_sector_get_off                     0x08065bbd   Thumb Code    12  swap_misc.o(.text.flash_sector_get_off)
    [Anonymous Symbol]                       0x08065bbc   Section        0  swap_misc.o(.text.flash_sector_get_off)
    flash_sector_get_off                     0x08065bc9   Thumb Code    12  swap_scratch.o(.text.flash_sector_get_off)
    [Anonymous Symbol]                       0x08065bc8   Section        0  swap_scratch.o(.text.flash_sector_get_off)
    flash_sector_get_size                    0x08065bd5   Thumb Code    12  swap_misc.o(.text.flash_sector_get_size)
    [Anonymous Symbol]                       0x08065bd4   Section        0  swap_misc.o(.text.flash_sector_get_size)
    flash_sector_get_size                    0x08065be1   Thumb Code    12  swap_scratch.o(.text.flash_sector_get_size)
    [Anonymous Symbol]                       0x08065be0   Section        0  swap_scratch.o(.text.flash_sector_get_size)
    like_mbedtls_zeroize                     0x08065bed   Thumb Code    48  loader.o(.text.like_mbedtls_zeroize)
    [Anonymous Symbol]                       0x08065bec   Section        0  loader.o(.text.like_mbedtls_zeroize)
    [Anonymous Symbol]                       0x08065c1c   Section        0  mbl.o(.text.main)
    [Anonymous Symbol]                       0x08065e4c   Section        0  keys.o(.text.mbl_get_rotpk)
    [Anonymous Symbol]                       0x08065e70   Section        0  swap_misc.o(.text.swap_erase_trailer_sectors)
    [Anonymous Symbol]                       0x08065f7c   Section        0  swap_misc.o(.text.swap_read_status)
    [Anonymous Symbol]                       0x0806605c   Section        0  swap_scratch.o(.text.swap_read_status_bytes)
    [Anonymous Symbol]                       0x08066184   Section        0  swap_scratch.o(.text.swap_run)
    [Anonymous Symbol]                       0x0806627c   Section        0  swap_misc.o(.text.swap_set_copy_done)
    [Anonymous Symbol]                       0x080662bc   Section        0  swap_misc.o(.text.swap_set_image_ok)
    [Anonymous Symbol]                       0x08066324   Section        0  swap_misc.o(.text.swap_status_init)
    [Anonymous Symbol]                       0x080664a4   Section        0  swap_scratch.o(.text.swap_status_source)
    [Anonymous Symbol]                       0x08066708   Section        0  gd32f5xx_syscfg.o(.text.syscfg_interrupt_flag_get)
    system_clock_200m_25m_hxtal              0x08066731   Thumb Code   350  system_gd32f5xx.o(.text.system_clock_200m_25m_hxtal)
    [Anonymous Symbol]                       0x08066730   Section        0  system_gd32f5xx.o(.text.system_clock_200m_25m_hxtal)
    system_clock_config                      0x08066891   Thumb Code     8  system_gd32f5xx.o(.text.system_clock_config)
    [Anonymous Symbol]                       0x08066890   Section        0  system_gd32f5xx.o(.text.system_clock_config)
    [Anonymous Symbol]                       0x08066898   Section        0  mbl_systick.o(.text.systick_config)
    [Anonymous Symbol]                       0x080668cc   Section        0  gd32f5xx_usart.o(.text.usart_data_receive)
    [Anonymous Symbol]                       0x080668dc   Section        0  gd32f5xx_usart.o(.text.usart_interrupt_disable)
    [Anonymous Symbol]                       0x08066900   Section        0  gd32f5xx_usart.o(.text.usart_interrupt_enable)
    [Anonymous Symbol]                       0x08066924   Section        0  gd32f5xx_usart.o(.text.usart_interrupt_flag_get)
    [Anonymous Symbol]                       0x0806697c   Section        0  mbl.o(.text.ymodem_packet_init)
    i.__scatterload_copy                     0x080669f4   Section       14  handlers.o(i.__scatterload_copy)
    i.__scatterload_null                     0x08066a02   Section        2  handlers.o(i.__scatterload_null)
    i.__scatterload_zeroinit                 0x08066a04   Section       14  handlers.o(i.__scatterload_zeroinit)
    boot_status_tables                       0x08066a22   Data          16  swap_scratch.o(.rodata.boot_status_tables)
    [Anonymous Symbol]                       0x08066a22   Section        0  swap_scratch.o(.rodata.boot_status_tables)
    boot_swap_tables                         0x08066a32   Data          18  bootutil_public.o(.rodata.boot_swap_tables)
    [Anonymous Symbol]                       0x08066a32   Section        0  bootutil_public.o(.rodata.boot_swap_tables)
    flash_map                                0x08066a50   Data          36  flash_map.o(.rodata.flash_map)
    [Anonymous Symbol]                       0x08066a50   Section        0  flash_map.o(.rodata.flash_map)
    .L.str.5                                 0x08066a74   Data          48  mbl.o(.rodata.str1.1)
    [Anonymous Symbol]                       0x08066a74   Section        0  mbl.o(.rodata.str1.1)
    .L.str.2                                 0x08066aa4   Data          23  mbl.o(.rodata.str1.1)
    .L.str.4                                 0x08066abb   Data          40  mbl.o(.rodata.str1.1)
    .L.str.6                                 0x08066ae3   Data          14  mbl.o(.rodata.str1.1)
    .L.str                                   0x08066af1   Data          26  mbl.o(.rodata.str1.1)
    .L.str.1                                 0x08066b0b   Data           5  mbl.o(.rodata.str1.1)
    .L.str                                   0x08066b10   Data           8  mbl.o(.rodata.str1.1)
    .L.str.1                                 0x08066b10   Data           8  mbl.o(.rodata.str1.1)
    .L.str.5                                 0x08066b10   Data           8  mbl.o(.rodata.str1.1)
    .L.str.7                                 0x08066b10   Data           8  mbl.o(.rodata.str1.1)
    .L.str.8                                 0x08066b18   Data          36  mbl.o(.rodata.str1.1)
    .L.str.3                                 0x08066b3c   Data          18  mbl_gd32f5xx_it.o(.rodata.str1.1)
    [Anonymous Symbol]                       0x08066b3c   Section        0  mbl_gd32f5xx_it.o(.rodata.str1.1)
    .L.str.4                                 0x08066b4e   Data          18  mbl_gd32f5xx_it.o(.rodata.str1.1)
    .L.str.7                                 0x08066b60   Data          19  mbl_gd32f5xx_it.o(.rodata.str1.1)
    .L.str.5                                 0x08066b73   Data          18  mbl_gd32f5xx_it.o(.rodata.str1.1)
    .L.str.6                                 0x08066b85   Data          18  mbl_gd32f5xx_it.o(.rodata.str1.1)
    .L.str.9                                 0x08066b97   Data          18  mbl_gd32f5xx_it.o(.rodata.str1.1)
    .L.str.11                                0x08066ba9   Data          20  mbl_gd32f5xx_it.o(.rodata.str1.1)
    .L.str.8                                 0x08066bbd   Data          18  mbl_gd32f5xx_it.o(.rodata.str1.1)
    .L.str.15                                0x08066bcf   Data          20  mbl_gd32f5xx_it.o(.rodata.str1.1)
    .L.str.12                                0x08066be3   Data          20  mbl_gd32f5xx_it.o(.rodata.str1.1)
    .L.str.14                                0x08066bf7   Data          20  mbl_gd32f5xx_it.o(.rodata.str1.1)
    .L.str.13                                0x08066c0b   Data          20  mbl_gd32f5xx_it.o(.rodata.str1.1)
    .L.str.10                                0x08066c1f   Data          19  mbl_gd32f5xx_it.o(.rodata.str1.1)
    .L.str.2                                 0x08066c32   Data          23  mbl_gd32f5xx_it.o(.rodata.str1.1)
    .L.str.1                                 0x08066c49   Data          48  mbl_gd32f5xx_it.o(.rodata.str1.1)
    .L.str                                   0x08066c79   Data          52  mbl_gd32f5xx_it.o(.rodata.str1.1)
    .L.str                                   0x08066cad   Data          39  boot_hal.o(.rodata.str1.1)
    [Anonymous Symbol]                       0x08066cad   Section        0  boot_hal.o(.rodata.str1.1)
    .L.str                                   0x08066cd4   Data          35  flash_map.o(.rodata.str1.1)
    [Anonymous Symbol]                       0x08066cd4   Section        0  flash_map.o(.rodata.str1.1)
    .L.str.2                                 0x08066cf7   Data          48  bootutil_misc.o(.rodata.str1.1)
    [Anonymous Symbol]                       0x08066cf7   Section        0  bootutil_misc.o(.rodata.str1.1)
    .L.str.3                                 0x08066d27   Data          46  bootutil_misc.o(.rodata.str1.1)
    .L.str                                   0x08066d55   Data          41  bootutil_misc.o(.rodata.str1.1)
    .L.str.1                                 0x08066d7e   Data          81  bootutil_misc.o(.rodata.str1.1)
    .L.str                                   0x08066dcf   Data          44  bootutil_public.o(.rodata.str1.1)
    [Anonymous Symbol]                       0x08066dcf   Section        0  bootutil_public.o(.rodata.str1.1)
    .L.str.16                                0x08066dfb   Data          48  bootutil_public.o(.rodata.str1.1)
    .L.str.2                                 0x08066e2a   Data          53  bootutil_public.o(.rodata.str1.1)
    .L.str.1                                 0x08066e2b   Data          47  bootutil_public.o(.rodata.str1.1)
    .L.str.3                                 0x08066e5f   Data          54  bootutil_public.o(.rodata.str1.1)
    .L.str.4                                 0x08066e95   Data          50  bootutil_public.o(.rodata.str1.1)
    .L.str.15                                0x08066f0c   Data          35  bootutil_public.o(.rodata.str1.1)
    .L.str.10                                0x08066f4d   Data          33  bootutil_public.o(.rodata.str1.1)
    .L.str.8                                 0x08066f6e   Data          79  bootutil_public.o(.rodata.str1.1)
    .L.str.9                                 0x08066fd5   Data          72  bootutil_public.o(.rodata.str1.1)
    .L.str.3                                 0x0806701a   Data           3  bootutil_public.o(.rodata.str1.1)
    .L.str.7                                 0x0806701d   Data          18  bootutil_public.o(.rodata.str1.1)
    .L.str.5                                 0x0806702f   Data          18  bootutil_public.o(.rodata.str1.1)
    .L.str.6                                 0x08067041   Data          83  bootutil_public.o(.rodata.str1.1)
    .L.str.17                                0x0806706c   Data           2  bootutil_public.o(.rodata.str1.1)
    .L.str.18                                0x0806706e   Data          30  bootutil_public.o(.rodata.str1.1)
    .L.str.19                                0x0806708c   Data          24  bootutil_public.o(.rodata.str1.1)
    .L.str.12                                0x08067094   Data           5  bootutil_public.o(.rodata.str1.1)
    .L.str.14                                0x08067099   Data          18  bootutil_public.o(.rodata.str1.1)
    .L.str.17                                0x08067099   Data          18  bootutil_public.o(.rodata.str1.1)
    .L.str.20                                0x080670a4   Data          21  bootutil_public.o(.rodata.str1.1)
    .L.str.13                                0x080670ab   Data           7  bootutil_public.o(.rodata.str1.1)
    .L.str.11                                0x080670b2   Data           5  bootutil_public.o(.rodata.str1.1)
    .L.str.2                                 0x080670b7   Data          16  encrypted.o(.rodata.str1.1)
    [Anonymous Symbol]                       0x080670b7   Section        0  encrypted.o(.rodata.str1.1)
    .L.str.1                                 0x080670c7   Data          77  encrypted.o(.rodata.str1.1)
    .L.str.4                                 0x08067114   Data           9  loader.o(.rodata.str1.1)
    [Anonymous Symbol]                       0x08067114   Section        0  loader.o(.rodata.str1.1)
    .L.str.15                                0x0806711d   Data          37  loader.o(.rodata.str1.1)
    .L.str.6                                 0x08067142   Data          33  loader.o(.rodata.str1.1)
    .L.str.7                                 0x08067163   Data          63  loader.o(.rodata.str1.1)
    .L.str.13                                0x080671a2   Data          57  loader.o(.rodata.str1.1)
    .L.str.2                                 0x080671db   Data          74  loader.o(.rodata.str1.1)
    .L.str.3                                 0x08067225   Data          57  loader.o(.rodata.str1.1)
    .L.str.14                                0x0806725e   Data          56  loader.o(.rodata.str1.1)
    .L.str.12                                0x08067296   Data          44  loader.o(.rodata.str1.1)
    .L.str.8                                 0x080672c2   Data          41  loader.o(.rodata.str1.1)
    .L.str.9                                 0x080672eb   Data          39  loader.o(.rodata.str1.1)
    .L.str.10                                0x08067312   Data           8  loader.o(.rodata.str1.1)
    .L.str                                   0x08067318   Data           2  loader.o(.rodata.str1.1)
    .L.str.4                                 0x08067318   Data           2  loader.o(.rodata.str1.1)
    .L.str.5                                 0x08067318   Data           2  loader.o(.rodata.str1.1)
    .L.str.11                                0x0806731a   Data          12  loader.o(.rodata.str1.1)
    .L.str.1                                 0x08067326   Data          74  loader.o(.rodata.str1.1)
    .L.str.17                                0x08067370   Data          10  loader.o(.rodata.str1.1)
    .L.str.16                                0x0806737a   Data           8  loader.o(.rodata.str1.1)
    .L.str                                   0x08067382   Data          28  swap_misc.o(.rodata.str1.1)
    [Anonymous Symbol]                       0x08067382   Section        0  swap_misc.o(.rodata.str1.1)
    .L.str.3                                 0x0806739e   Data          32  swap_misc.o(.rodata.str1.1)
    .L.str.2                                 0x080673be   Data          77  swap_misc.o(.rodata.str1.1)
    .L.str                                   0x0806740b   Data          32  swap_scratch.o(.rodata.str1.1)
    [Anonymous Symbol]                       0x0806740b   Section        0  swap_scratch.o(.rodata.str1.1)
    .L.str.19                                0x0806742b   Data          41  swap_scratch.o(.rodata.str1.1)
    .L.str.20                                0x08067454   Data          23  swap_scratch.o(.rodata.str1.1)
    .L.str.1                                 0x0806746b   Data          44  swap_scratch.o(.rodata.str1.1)
    .L.str.4                                 0x08067497   Data          43  swap_scratch.o(.rodata.str1.1)
    .L.str.18                                0x080674c2   Data          20  swap_scratch.o(.rodata.str1.1)
    .L.str.3                                 0x080674d6   Data          53  swap_scratch.o(.rodata.str1.1)
    .L.str.13                                0x0806750b   Data          18  swap_scratch.o(.rodata.str1.1)
    .L.str.2                                 0x0806751d   Data          52  swap_scratch.o(.rodata.str1.1)
    .L.str.7                                 0x08067551   Data          62  swap_scratch.o(.rodata.str1.1)
    .L.str.6                                 0x0806758f   Data          80  swap_scratch.o(.rodata.str1.1)
    .L.str.11                                0x080675df   Data           4  swap_scratch.o(.rodata.str1.1)
    .L.str.9                                 0x080675e3   Data           5  swap_scratch.o(.rodata.str1.1)
    .L.str.8                                 0x080675e8   Data          14  swap_scratch.o(.rodata.str1.1)
    .L.str.14                                0x080675f6   Data           5  swap_scratch.o(.rodata.str1.1)
    .L.str.12                                0x080675fb   Data           8  swap_scratch.o(.rodata.str1.1)
    .L.str.15                                0x08067603   Data           8  swap_scratch.o(.rodata.str1.1)
    .L.str.10                                0x0806760b   Data           6  swap_scratch.o(.rodata.str1.1)
    .L.str.16                                0x08067611   Data          13  swap_scratch.o(.rodata.str1.1)
    enc_priv_key_len                         0x20001ec0   Data           4  keys.o(.data.enc_priv_key_len)
    [Anonymous Symbol]                       0x20001ec0   Section        0  keys.o(.data.enc_priv_key_len)
    UART6_IRQHandler.flag_cnt                0x20001ecc   Data           4  mbl_gd32f5xx_it.o(.bss.UART6_IRQHandler.flag_cnt)
    [Anonymous Symbol]                       0x20001ecc   Section        0  mbl_gd32f5xx_it.o(.bss.UART6_IRQHandler.flag_cnt)
    boot_copy_region.buf                     0x20001ed0   Data        1024  loader.o(.bss.boot_copy_region.buf)
    [Anonymous Symbol]                       0x20001ed0   Section        0  loader.o(.bss.boot_copy_region.buf)
    boot_data                                0x200022d0   Data         188  loader.o(.bss.boot_data)
    [Anonymous Symbol]                       0x200022d0   Section        0  loader.o(.bss.boot_data)
    boot_image_check.tmpbuf                  0x2000238c   Data         256  loader.o(.bss.boot_image_check.tmpbuf)
    [Anonymous Symbol]                       0x2000238c   Section        0  loader.o(.bss.boot_image_check.tmpbuf)
    context_boot_go.primary_slot_sectors     0x20002490   Data        4096  loader.o(.bss.context_boot_go.primary_slot_sectors)
    [Anonymous Symbol]                       0x20002490   Section        0  loader.o(.bss.context_boot_go.primary_slot_sectors)
    context_boot_go.scratch_sectors          0x20003490   Data        4096  loader.o(.bss.context_boot_go.scratch_sectors)
    [Anonymous Symbol]                       0x20003490   Section        0  loader.o(.bss.context_boot_go.scratch_sectors)
    context_boot_go.secondary_slot_sectors   0x20004490   Data        4096  loader.o(.bss.context_boot_go.secondary_slot_sectors)
    [Anonymous Symbol]                       0x20004490   Section        0  loader.o(.bss.context_boot_go.secondary_slot_sectors)
    delay                                    0x20005490   Data           4  mbl_systick.o(.bss.delay)
    [Anonymous Symbol]                       0x20005490   Section        0  mbl_systick.o(.bss.delay)
    do_boot.vt                               0x20005494   Data           4  mbl.o(.bss.do_boot.vt)
    [Anonymous Symbol]                       0x20005494   Section        0  mbl.o(.bss.do_boot.vt)
    alloc_buf                                0x200058e0   Data       12288  mbl.o(.bss.alloc_buf)
    [Anonymous Symbol]                       0x200058e0   Section        0  mbl.o(.bss.alloc_buf)

    Global Symbols

    Symbol Name                              Value     Ov Type        Size  Object(Section)

    BuildAttributes$$THM_ISAv4$E$P$D$K$B$S$7EM$8M$VFPi5$EXTD16$VFPS$VFMA$PE$A:L22UL41UL21$X:L11$S22US41US21$IEEE1$IW$~IW$USESV6$~STKCKD$USESV7$WCHAR32$ENUMINT$~SHL$OSPACE$EBA8$MICROLIB$REQ8$PRES8$EABIv2 0x00000000   Number         0  anon$$obj.o ABSOLUTE
    __cpp_initialize__aeabi_                  - Undefined Weak Reference
    __cxa_finalize                            - Undefined Weak Reference
    __decompress                              - Undefined Weak Reference
    _clock_init                               - Undefined Weak Reference
    _microlib_exit                            - Undefined Weak Reference
    __Vectors_Size                           0x000003cc   Number         0  startup_gd32f5xx_mbl.o ABSOLUTE
    ED25519_verify                           0x0800384d   Thumb Code     0  ibl_symbol_mbedtls ABSOLUTE
    __exit                                   0x08003a41   Thumb Code     0  ibl_symbol_mbedtls ABSOLUTE
    mbedtls_aes_crypt_cbc                    0x0800e4c5   Thumb Code     0  ibl_symbol_mbedtls ABSOLUTE
    mbedtls_aes_crypt_cfb128                 0x0800e581   Thumb Code     0  ibl_symbol_mbedtls ABSOLUTE
    mbedtls_aes_crypt_cfb8                   0x0800e651   Thumb Code     0  ibl_symbol_mbedtls ABSOLUTE
    mbedtls_aes_crypt_ctr                    0x0800e6dd   Thumb Code     0  ibl_symbol_mbedtls ABSOLUTE
    mbedtls_aes_crypt_ecb                    0x0800e781   Thumb Code     0  ibl_symbol_mbedtls ABSOLUTE
    mbedtls_aes_crypt_ofb                    0x0800e7e5   Thumb Code     0  ibl_symbol_mbedtls ABSOLUTE
    mbedtls_aes_free                         0x0800e875   Thumb Code     0  ibl_symbol_mbedtls ABSOLUTE
    mbedtls_aes_init                         0x0800e891   Thumb Code     0  ibl_symbol_mbedtls ABSOLUTE
    mbedtls_aes_setkey_dec                   0x0800e8a5   Thumb Code     0  ibl_symbol_mbedtls ABSOLUTE
    mbedtls_aes_setkey_enc                   0x0800e8c9   Thumb Code     0  ibl_symbol_mbedtls ABSOLUTE
    mbedtls_arc4_crypt                       0x0800e8ed   Thumb Code     0  ibl_symbol_mbedtls ABSOLUTE
    mbedtls_arc4_free                        0x0800e981   Thumb Code     0  ibl_symbol_mbedtls ABSOLUTE
    mbedtls_arc4_init                        0x0800e9a1   Thumb Code     0  ibl_symbol_mbedtls ABSOLUTE
    mbedtls_arc4_setup                       0x0800e9b9   Thumb Code     0  ibl_symbol_mbedtls ABSOLUTE
    mbedtls_asn1_find_named_data             0x0800ea51   Thumb Code     0  ibl_symbol_mbedtls ABSOLUTE
    mbedtls_asn1_free_named_data             0x0800ea91   Thumb Code     0  ibl_symbol_mbedtls ABSOLUTE
    mbedtls_asn1_free_named_data_list        0x0800eabd   Thumb Code     0  ibl_symbol_mbedtls ABSOLUTE
    mbedtls_asn1_get_alg                     0x0800eae9   Thumb Code     0  ibl_symbol_mbedtls ABSOLUTE
    mbedtls_asn1_get_alg_null                0x0800ebdd   Thumb Code     0  ibl_symbol_mbedtls ABSOLUTE
    mbedtls_asn1_get_bitstring               0x0800ec35   Thumb Code     0  ibl_symbol_mbedtls ABSOLUTE
    mbedtls_asn1_get_bitstring_null          0x0800ecc9   Thumb Code     0  ibl_symbol_mbedtls ABSOLUTE
    mbedtls_asn1_get_bool                    0x0800ed1d   Thumb Code     0  ibl_symbol_mbedtls ABSOLUTE
    mbedtls_asn1_get_int                     0x0800ed75   Thumb Code     0  ibl_symbol_mbedtls ABSOLUTE
    mbedtls_asn1_get_len                     0x0800edf5   Thumb Code     0  ibl_symbol_mbedtls ABSOLUTE
    mbedtls_asn1_get_mpi                     0x0800ef3d   Thumb Code     0  ibl_symbol_mbedtls ABSOLUTE
    mbedtls_asn1_get_sequence_of             0x0800ef85   Thumb Code     0  ibl_symbol_mbedtls ABSOLUTE
    mbedtls_asn1_get_tag                     0x0800f065   Thumb Code     0  ibl_symbol_mbedtls ABSOLUTE
    mbedtls_asn1_store_named_data            0x0800f0b9   Thumb Code     0  ibl_symbol_mbedtls ABSOLUTE
    mbedtls_asn1_write_algorithm_identifier  0x0800f1bd   Thumb Code     0  ibl_symbol_mbedtls ABSOLUTE
    mbedtls_asn1_write_bitstring             0x0800f291   Thumb Code     0  ibl_symbol_mbedtls ABSOLUTE
    mbedtls_asn1_write_bool                  0x0800f389   Thumb Code     0  ibl_symbol_mbedtls ABSOLUTE
    mbedtls_asn1_write_ia5_string            0x0800f425   Thumb Code     0  ibl_symbol_mbedtls ABSOLUTE
    mbedtls_asn1_write_int                   0x0800f449   Thumb Code     0  ibl_symbol_mbedtls ABSOLUTE
    mbedtls_asn1_write_len                   0x0800f521   Thumb Code     0  ibl_symbol_mbedtls ABSOLUTE
    mbedtls_asn1_write_mpi                   0x0800f6b9   Thumb Code     0  ibl_symbol_mbedtls ABSOLUTE
    mbedtls_asn1_write_named_bitstring       0x0800f7bd   Thumb Code     0  ibl_symbol_mbedtls ABSOLUTE
    mbedtls_asn1_write_null                  0x0800f855   Thumb Code     0  ibl_symbol_mbedtls ABSOLUTE
    mbedtls_asn1_write_octet_string          0x0800f8bd   Thumb Code     0  ibl_symbol_mbedtls ABSOLUTE
    mbedtls_asn1_write_oid                   0x0800f955   Thumb Code     0  ibl_symbol_mbedtls ABSOLUTE
    mbedtls_asn1_write_printable_string      0x0800f9ed   Thumb Code     0  ibl_symbol_mbedtls ABSOLUTE
    mbedtls_asn1_write_raw_buffer            0x0800fa11   Thumb Code     0  ibl_symbol_mbedtls ABSOLUTE
    mbedtls_asn1_write_tag                   0x0800fa6d   Thumb Code     0  ibl_symbol_mbedtls ABSOLUTE
    mbedtls_asn1_write_tagged_string         0x0800faa9   Thumb Code     0  ibl_symbol_mbedtls ABSOLUTE
    mbedtls_asn1_write_utf8_string           0x0800fb45   Thumb Code     0  ibl_symbol_mbedtls ABSOLUTE
    mbedtls_base64_decode                    0x0800fb69   Thumb Code     0  ibl_symbol_mbedtls ABSOLUTE
    mbedtls_base64_encode                    0x0800fdc5   Thumb Code     0  ibl_symbol_mbedtls ABSOLUTE
    mbedtls_blowfish_crypt_cbc               0x0800ffb1   Thumb Code     0  ibl_symbol_mbedtls ABSOLUTE
    mbedtls_blowfish_crypt_cfb64             0x080100bd   Thumb Code     0  ibl_symbol_mbedtls ABSOLUTE
    mbedtls_blowfish_crypt_ctr               0x080101b9   Thumb Code     0  ibl_symbol_mbedtls ABSOLUTE
    mbedtls_blowfish_crypt_ecb               0x08010289   Thumb Code     0  ibl_symbol_mbedtls ABSOLUTE
    mbedtls_blowfish_free                    0x08010315   Thumb Code     0  ibl_symbol_mbedtls ABSOLUTE
    mbedtls_blowfish_init                    0x08010335   Thumb Code     0  ibl_symbol_mbedtls ABSOLUTE
    mbedtls_blowfish_setkey                  0x08010351   Thumb Code     0  ibl_symbol_mbedtls ABSOLUTE
    mbedtls_calloc                           0x080104d9   Thumb Code     0  ibl_symbol_mbedtls ABSOLUTE
    mbedtls_camellia_crypt_cbc               0x08010511   Thumb Code     0  ibl_symbol_mbedtls ABSOLUTE
    mbedtls_camellia_crypt_cfb128            0x0801061d   Thumb Code     0  ibl_symbol_mbedtls ABSOLUTE
    mbedtls_camellia_crypt_ctr               0x08010719   Thumb Code     0  ibl_symbol_mbedtls ABSOLUTE
    mbedtls_camellia_crypt_ecb               0x080107e9   Thumb Code     0  ibl_symbol_mbedtls ABSOLUTE
    mbedtls_camellia_free                    0x080109e9   Thumb Code     0  ibl_symbol_mbedtls ABSOLUTE
    mbedtls_camellia_init                    0x08010a09   Thumb Code     0  ibl_symbol_mbedtls ABSOLUTE
    mbedtls_camellia_setkey_dec              0x08010a25   Thumb Code     0  ibl_symbol_mbedtls ABSOLUTE
    mbedtls_camellia_setkey_enc              0x08010b55   Thumb Code     0  ibl_symbol_mbedtls ABSOLUTE
    mbedtls_ccm_auth_decrypt                 0x08011279   Thumb Code     0  ibl_symbol_mbedtls ABSOLUTE
    mbedtls_ccm_encrypt_and_tag              0x08011309   Thumb Code     0  ibl_symbol_mbedtls ABSOLUTE
    mbedtls_ccm_free                         0x08011399   Thumb Code     0  ibl_symbol_mbedtls ABSOLUTE
    mbedtls_ccm_init                         0x080113bd   Thumb Code     0  ibl_symbol_mbedtls ABSOLUTE
    mbedtls_ccm_setkey                       0x080113d5   Thumb Code     0  ibl_symbol_mbedtls ABSOLUTE
    mbedtls_ccm_star_auth_decrypt            0x08011455   Thumb Code     0  ibl_symbol_mbedtls ABSOLUTE
    mbedtls_ccm_star_encrypt_and_tag         0x08011531   Thumb Code     0  ibl_symbol_mbedtls ABSOLUTE
    mbedtls_cipher_auth_decrypt              0x080115b1   Thumb Code     0  ibl_symbol_mbedtls ABSOLUTE
    mbedtls_cipher_auth_encrypt              0x080116d9   Thumb Code     0  ibl_symbol_mbedtls ABSOLUTE
    mbedtls_cipher_check_tag                 0x080117d5   Thumb Code     0  ibl_symbol_mbedtls ABSOLUTE
    mbedtls_cipher_crypt                     0x08011875   Thumb Code     0  ibl_symbol_mbedtls ABSOLUTE
    mbedtls_cipher_finish                    0x0801191d   Thumb Code     0  ibl_symbol_mbedtls ABSOLUTE
    mbedtls_cipher_free                      0x08011af9   Thumb Code     0  ibl_symbol_mbedtls ABSOLUTE
    mbedtls_cipher_info_from_string          0x08011bb5   Thumb Code     0  ibl_symbol_mbedtls ABSOLUTE
    mbedtls_cipher_info_from_type            0x08011c09   Thumb Code     0  ibl_symbol_mbedtls ABSOLUTE
    mbedtls_cipher_info_from_values          0x08011c4d   Thumb Code     0  ibl_symbol_mbedtls ABSOLUTE
    mbedtls_cipher_init                      0x08011cb5   Thumb Code     0  ibl_symbol_mbedtls ABSOLUTE
    mbedtls_cipher_list                      0x08011ccd   Thumb Code     0  ibl_symbol_mbedtls ABSOLUTE
    mbedtls_cipher_reset                     0x08011d31   Thumb Code     0  ibl_symbol_mbedtls ABSOLUTE
    mbedtls_cipher_set_iv                    0x08011d5d   Thumb Code     0  ibl_symbol_mbedtls ABSOLUTE
    mbedtls_cipher_set_padding_mode          0x08011df1   Thumb Code     0  ibl_symbol_mbedtls ABSOLUTE
    mbedtls_cipher_setkey                    0x08011ec5   Thumb Code     0  ibl_symbol_mbedtls ABSOLUTE
    mbedtls_cipher_setup                     0x08011f91   Thumb Code     0  ibl_symbol_mbedtls ABSOLUTE
    mbedtls_cipher_update                    0x08011ff1   Thumb Code     0  ibl_symbol_mbedtls ABSOLUTE
    mbedtls_cipher_update_ad                 0x080123e1   Thumb Code     0  ibl_symbol_mbedtls ABSOLUTE
    mbedtls_cipher_write_tag                 0x08012441   Thumb Code     0  ibl_symbol_mbedtls ABSOLUTE
    mbedtls_ciphersuite_preference_init      0x080124a5   Thumb Code     0  ibl_symbol_mbedtls ABSOLUTE
    mbedtls_ctr_drbg_free                    0x0801255d   Thumb Code     0  ibl_symbol_mbedtls ABSOLUTE
    mbedtls_ctr_drbg_init                    0x08012581   Thumb Code     0  ibl_symbol_mbedtls ABSOLUTE
    mbedtls_ctr_drbg_random                  0x08012595   Thumb Code     0  ibl_symbol_mbedtls ABSOLUTE
    mbedtls_ctr_drbg_random_with_add         0x080125bd   Thumb Code     0  ibl_symbol_mbedtls ABSOLUTE
    mbedtls_ctr_drbg_reseed                  0x08012719   Thumb Code     0  ibl_symbol_mbedtls ABSOLUTE
    mbedtls_ctr_drbg_seed                    0x080127e1   Thumb Code     0  ibl_symbol_mbedtls ABSOLUTE
    mbedtls_ctr_drbg_seed_entropy_len        0x08012811   Thumb Code     0  ibl_symbol_mbedtls ABSOLUTE
    mbedtls_ctr_drbg_set_entropy_len         0x08012891   Thumb Code     0  ibl_symbol_mbedtls ABSOLUTE
    mbedtls_ctr_drbg_set_prediction_resistance 0x080128a1   Thumb Code     0  ibl_symbol_mbedtls ABSOLUTE
    mbedtls_ctr_drbg_set_reseed_interval     0x080128b1   Thumb Code     0  ibl_symbol_mbedtls ABSOLUTE
    mbedtls_ctr_drbg_update                  0x080128c1   Thumb Code     0  ibl_symbol_mbedtls ABSOLUTE
    mbedtls_ctr_drbg_update_ret              0x080128ed   Thumb Code     0  ibl_symbol_mbedtls ABSOLUTE
    mbedtls_des3_crypt_cbc                   0x0801293d   Thumb Code     0  ibl_symbol_mbedtls ABSOLUTE
    mbedtls_des3_crypt_ecb                   0x080129c9   Thumb Code     0  ibl_symbol_mbedtls ABSOLUTE
    mbedtls_des3_free                        0x08012a15   Thumb Code     0  ibl_symbol_mbedtls ABSOLUTE
    mbedtls_des3_init                        0x08012a31   Thumb Code     0  ibl_symbol_mbedtls ABSOLUTE
    mbedtls_des3_set2key_dec                 0x08012a45   Thumb Code     0  ibl_symbol_mbedtls ABSOLUTE
    mbedtls_des3_set2key_enc                 0x08012a75   Thumb Code     0  ibl_symbol_mbedtls ABSOLUTE
    mbedtls_des3_set3key_dec                 0x08012aa1   Thumb Code     0  ibl_symbol_mbedtls ABSOLUTE
    mbedtls_des3_set3key_enc                 0x08012ac5   Thumb Code     0  ibl_symbol_mbedtls ABSOLUTE
    mbedtls_des_crypt_cbc                    0x08012ae5   Thumb Code     0  ibl_symbol_mbedtls ABSOLUTE
    mbedtls_des_crypt_ecb                    0x08012b79   Thumb Code     0  ibl_symbol_mbedtls ABSOLUTE
    mbedtls_des_free                         0x08012bcd   Thumb Code     0  ibl_symbol_mbedtls ABSOLUTE
    mbedtls_des_init                         0x08012be9   Thumb Code     0  ibl_symbol_mbedtls ABSOLUTE
    mbedtls_des_key_set_parity               0x08012bfd   Thumb Code     0  ibl_symbol_mbedtls ABSOLUTE
    mbedtls_des_setkey_dec                   0x08012c31   Thumb Code     0  ibl_symbol_mbedtls ABSOLUTE
    mbedtls_des_setkey_enc                   0x08012c55   Thumb Code     0  ibl_symbol_mbedtls ABSOLUTE
    mbedtls_dhm_calc_secret                  0x08012c75   Thumb Code     0  ibl_symbol_mbedtls ABSOLUTE
    mbedtls_dhm_free                         0x08012de5   Thumb Code     0  ibl_symbol_mbedtls ABSOLUTE
    mbedtls_dhm_init                         0x08012e51   Thumb Code     0  ibl_symbol_mbedtls ABSOLUTE
    mbedtls_dhm_make_params                  0x08012e69   Thumb Code     0  ibl_symbol_mbedtls ABSOLUTE
    mbedtls_dhm_make_public                  0x08013069   Thumb Code     0  ibl_symbol_mbedtls ABSOLUTE
    mbedtls_dhm_parse_dhm                    0x080131b5   Thumb Code     0  ibl_symbol_mbedtls ABSOLUTE
    mbedtls_dhm_read_params                  0x0801331d   Thumb Code     0  ibl_symbol_mbedtls ABSOLUTE
    mbedtls_dhm_read_public                  0x080133a1   Thumb Code     0  ibl_symbol_mbedtls ABSOLUTE
    mbedtls_dhm_set_group                    0x080133f9   Thumb Code     0  ibl_symbol_mbedtls ABSOLUTE
    mbedtls_ecdh_calc_secret                 0x08013451   Thumb Code     0  ibl_symbol_mbedtls ABSOLUTE
    mbedtls_ecdh_compute_shared              0x0801349d   Thumb Code     0  ibl_symbol_mbedtls ABSOLUTE
    mbedtls_ecdh_free                        0x080134e9   Thumb Code     0  ibl_symbol_mbedtls ABSOLUTE
    mbedtls_ecdh_gen_public                  0x08013521   Thumb Code     0  ibl_symbol_mbedtls ABSOLUTE
    mbedtls_ecdh_get_params                  0x08013561   Thumb Code     0  ibl_symbol_mbedtls ABSOLUTE
    mbedtls_ecdh_init                        0x080135a1   Thumb Code     0  ibl_symbol_mbedtls ABSOLUTE
    mbedtls_ecdh_make_params                 0x080135d9   Thumb Code     0  ibl_symbol_mbedtls ABSOLUTE
    mbedtls_ecdh_make_public                 0x08013631   Thumb Code     0  ibl_symbol_mbedtls ABSOLUTE
    mbedtls_ecdh_read_params                 0x08013689   Thumb Code     0  ibl_symbol_mbedtls ABSOLUTE
    mbedtls_ecdh_read_public                 0x080136e5   Thumb Code     0  ibl_symbol_mbedtls ABSOLUTE
    mbedtls_ecdh_setup                       0x08013705   Thumb Code     0  ibl_symbol_mbedtls ABSOLUTE
    mbedtls_ecdsa_free                       0x0801371d   Thumb Code     0  ibl_symbol_mbedtls ABSOLUTE
    mbedtls_ecdsa_from_keypair               0x08013739   Thumb Code     0  ibl_symbol_mbedtls ABSOLUTE
    mbedtls_ecdsa_genkey                     0x08013789   Thumb Code     0  ibl_symbol_mbedtls ABSOLUTE
    mbedtls_ecdsa_init                       0x080137dd   Thumb Code     0  ibl_symbol_mbedtls ABSOLUTE
    mbedtls_ecdsa_read_signature             0x080137f1   Thumb Code     0  ibl_symbol_mbedtls ABSOLUTE
    mbedtls_ecdsa_read_signature_restartable 0x0801382d   Thumb Code     0  ibl_symbol_mbedtls ABSOLUTE
    mbedtls_ecdsa_sign                       0x08013919   Thumb Code     0  ibl_symbol_mbedtls ABSOLUTE
    mbedtls_ecdsa_sign_det                   0x08013add   Thumb Code     0  ibl_symbol_mbedtls ABSOLUTE
    mbedtls_ecdsa_verify                     0x08013b35   Thumb Code     0  ibl_symbol_mbedtls ABSOLUTE
    mbedtls_ecdsa_write_signature            0x08013c69   Thumb Code     0  ibl_symbol_mbedtls ABSOLUTE
    mbedtls_ecdsa_write_signature_det        0x08013cc9   Thumb Code     0  ibl_symbol_mbedtls ABSOLUTE
    mbedtls_ecdsa_write_signature_restartable 0x08013d19   Thumb Code     0  ibl_symbol_mbedtls ABSOLUTE
    mbedtls_ecjpake_check                    0x08013db5   Thumb Code     0  ibl_symbol_mbedtls ABSOLUTE
    mbedtls_ecjpake_derive_secret            0x08013df1   Thumb Code     0  ibl_symbol_mbedtls ABSOLUTE
    mbedtls_ecjpake_free                     0x08013f45   Thumb Code     0  ibl_symbol_mbedtls ABSOLUTE
    mbedtls_ecjpake_init                     0x08013fb1   Thumb Code     0  ibl_symbol_mbedtls ABSOLUTE
    mbedtls_ecjpake_read_round_one           0x08014021   Thumb Code     0  ibl_symbol_mbedtls ABSOLUTE
    mbedtls_ecjpake_read_round_two           0x0801407d   Thumb Code     0  ibl_symbol_mbedtls ABSOLUTE
    mbedtls_ecjpake_setup                    0x0801417d   Thumb Code     0  ibl_symbol_mbedtls ABSOLUTE
    mbedtls_ecjpake_write_round_one          0x0801420d   Thumb Code     0  ibl_symbol_mbedtls ABSOLUTE
    mbedtls_ecjpake_write_round_two          0x080142ad   Thumb Code     0  ibl_symbol_mbedtls ABSOLUTE
    mbedtls_ecp_check_privkey                0x0801447d   Thumb Code     0  ibl_symbol_mbedtls ABSOLUTE
    mbedtls_ecp_check_pub_priv               0x08014545   Thumb Code     0  ibl_symbol_mbedtls ABSOLUTE
    mbedtls_ecp_check_pubkey                 0x08014639   Thumb Code     0  ibl_symbol_mbedtls ABSOLUTE
    mbedtls_ecp_copy                         0x080146a5   Thumb Code     0  ibl_symbol_mbedtls ABSOLUTE
    mbedtls_ecp_curve_info_from_grp_id       0x08014701   Thumb Code     0  ibl_symbol_mbedtls ABSOLUTE
    mbedtls_ecp_curve_info_from_name         0x08014741   Thumb Code     0  ibl_symbol_mbedtls ABSOLUTE
    mbedtls_ecp_curve_info_from_tls_id       0x0801478d   Thumb Code     0  ibl_symbol_mbedtls ABSOLUTE
    mbedtls_ecp_curve_list                   0x080147d1   Thumb Code     0  ibl_symbol_mbedtls ABSOLUTE
    mbedtls_ecp_curve_val_init               0x080147dd   Thumb Code     0  ibl_symbol_mbedtls ABSOLUTE
    mbedtls_ecp_gen_key                      0x0801481d   Thumb Code     0  ibl_symbol_mbedtls ABSOLUTE
    mbedtls_ecp_gen_keypair                  0x08014869   Thumb Code     0  ibl_symbol_mbedtls ABSOLUTE
    mbedtls_ecp_gen_keypair_base             0x080148ad   Thumb Code     0  ibl_symbol_mbedtls ABSOLUTE
    mbedtls_ecp_gen_privkey                  0x0801491d   Thumb Code     0  ibl_symbol_mbedtls ABSOLUTE
    mbedtls_ecp_group_copy                   0x08014ac5   Thumb Code     0  ibl_symbol_mbedtls ABSOLUTE
    mbedtls_ecp_group_free                   0x08014ae5   Thumb Code     0  ibl_symbol_mbedtls ABSOLUTE
    mbedtls_ecp_group_init                   0x08014b75   Thumb Code     0  ibl_symbol_mbedtls ABSOLUTE
    mbedtls_ecp_group_load                   0x08014bd9   Thumb Code     0  ibl_symbol_mbedtls ABSOLUTE
    mbedtls_ecp_grp_id_list                  0x0801503d   Thumb Code     0  ibl_symbol_mbedtls ABSOLUTE
    mbedtls_ecp_is_zero                      0x080150ad   Thumb Code     0  ibl_symbol_mbedtls ABSOLUTE
    mbedtls_ecp_keypair_free                 0x080150cd   Thumb Code     0  ibl_symbol_mbedtls ABSOLUTE
    mbedtls_ecp_keypair_init                 0x080150f9   Thumb Code     0  ibl_symbol_mbedtls ABSOLUTE
    mbedtls_ecp_mul                          0x0801511d   Thumb Code     0  ibl_symbol_mbedtls ABSOLUTE
    mbedtls_ecp_mul_restartable              0x08015169   Thumb Code     0  ibl_symbol_mbedtls ABSOLUTE
    mbedtls_ecp_muladd                       0x08015305   Thumb Code     0  ibl_symbol_mbedtls ABSOLUTE
    mbedtls_ecp_muladd_restartable           0x08015359   Thumb Code     0  ibl_symbol_mbedtls ABSOLUTE
    mbedtls_ecp_point_cmp                    0x08015435   Thumb Code     0  ibl_symbol_mbedtls ABSOLUTE
    mbedtls_ecp_point_free                   0x08015489   Thumb Code     0  ibl_symbol_mbedtls ABSOLUTE
    mbedtls_ecp_point_init                   0x080154b5   Thumb Code     0  ibl_symbol_mbedtls ABSOLUTE
    mbedtls_ecp_point_read_binary            0x080154d9   Thumb Code     0  ibl_symbol_mbedtls ABSOLUTE
    mbedtls_ecp_point_read_string            0x080155bd   Thumb Code     0  ibl_symbol_mbedtls ABSOLUTE
    mbedtls_ecp_point_write_binary           0x08015621   Thumb Code     0  ibl_symbol_mbedtls ABSOLUTE
    mbedtls_ecp_set_zero                     0x0801574d   Thumb Code     0  ibl_symbol_mbedtls ABSOLUTE
    mbedtls_ecp_tls_read_group               0x080157a1   Thumb Code     0  ibl_symbol_mbedtls ABSOLUTE
    mbedtls_ecp_tls_read_group_id            0x080157e1   Thumb Code     0  ibl_symbol_mbedtls ABSOLUTE
    mbedtls_ecp_tls_read_point               0x08015881   Thumb Code     0  ibl_symbol_mbedtls ABSOLUTE
    mbedtls_ecp_tls_write_group              0x0801590d   Thumb Code     0  ibl_symbol_mbedtls ABSOLUTE
    mbedtls_ecp_tls_write_point              0x08015985   Thumb Code     0  ibl_symbol_mbedtls ABSOLUTE
    mbedtls_entropy_add_source               0x08015a0d   Thumb Code     0  ibl_symbol_mbedtls ABSOLUTE
    mbedtls_entropy_free                     0x08015a95   Thumb Code     0  ibl_symbol_mbedtls ABSOLUTE
    mbedtls_entropy_func                     0x08015ac5   Thumb Code     0  ibl_symbol_mbedtls ABSOLUTE
    mbedtls_entropy_gather                   0x08015c15   Thumb Code     0  ibl_symbol_mbedtls ABSOLUTE
    mbedtls_entropy_init                     0x08015c29   Thumb Code     0  ibl_symbol_mbedtls ABSOLUTE
    mbedtls_entropy_update_manual            0x08015c71   Thumb Code     0  ibl_symbol_mbedtls ABSOLUTE
    mbedtls_free                             0x08015c91   Thumb Code     0  ibl_symbol_mbedtls ABSOLUTE
    mbedtls_gcm_auth_decrypt                 0x08015cb9   Thumb Code     0  ibl_symbol_mbedtls ABSOLUTE
    mbedtls_gcm_crypt_and_tag                0x08015d91   Thumb Code     0  ibl_symbol_mbedtls ABSOLUTE
    mbedtls_gcm_finish                       0x08015e35   Thumb Code     0  ibl_symbol_mbedtls ABSOLUTE
    mbedtls_gcm_free                         0x08015fad   Thumb Code     0  ibl_symbol_mbedtls ABSOLUTE
    mbedtls_gcm_init                         0x08015fd1   Thumb Code     0  ibl_symbol_mbedtls ABSOLUTE
    mbedtls_gcm_setkey                       0x08015fed   Thumb Code     0  ibl_symbol_mbedtls ABSOLUTE
    mbedtls_gcm_starts                       0x08016081   Thumb Code     0  ibl_symbol_mbedtls ABSOLUTE
    mbedtls_gcm_update                       0x080162a1   Thumb Code     0  ibl_symbol_mbedtls ABSOLUTE
    mbedtls_hardware_poll                    0x08016451   Thumb Code     0  ibl_symbol_mbedtls ABSOLUTE
    mbedtls_hkdf                             0x08016495   Thumb Code     0  ibl_symbol_mbedtls ABSOLUTE
    mbedtls_hkdf_expand                      0x08016515   Thumb Code     0  ibl_symbol_mbedtls ABSOLUTE
    mbedtls_hkdf_extract                     0x080166ad   Thumb Code     0  ibl_symbol_mbedtls ABSOLUTE
    mbedtls_hmac_drbg_free                   0x0801672d   Thumb Code     0  ibl_symbol_mbedtls ABSOLUTE
    mbedtls_hmac_drbg_init                   0x08016751   Thumb Code     0  ibl_symbol_mbedtls ABSOLUTE
    mbedtls_hmac_drbg_random                 0x08016765   Thumb Code     0  ibl_symbol_mbedtls ABSOLUTE
    mbedtls_hmac_drbg_random_with_add        0x0801678d   Thumb Code     0  ibl_symbol_mbedtls ABSOLUTE
    mbedtls_hmac_drbg_reseed                 0x080168cd   Thumb Code     0  ibl_symbol_mbedtls ABSOLUTE
    mbedtls_hmac_drbg_seed                   0x08016979   Thumb Code     0  ibl_symbol_mbedtls ABSOLUTE
    mbedtls_hmac_drbg_seed_buf               0x08016a39   Thumb Code     0  ibl_symbol_mbedtls ABSOLUTE
    mbedtls_hmac_drbg_set_entropy_len        0x08016ab9   Thumb Code     0  ibl_symbol_mbedtls ABSOLUTE
    mbedtls_hmac_drbg_set_prediction_resistance 0x08016ac9   Thumb Code     0  ibl_symbol_mbedtls ABSOLUTE
    mbedtls_hmac_drbg_set_reseed_interval    0x08016ad9   Thumb Code     0  ibl_symbol_mbedtls ABSOLUTE
    mbedtls_hmac_drbg_update                 0x08016ae9   Thumb Code     0  ibl_symbol_mbedtls ABSOLUTE
    mbedtls_hmac_drbg_update_ret             0x08016b01   Thumb Code     0  ibl_symbol_mbedtls ABSOLUTE
    mbedtls_hwpka_flag_set                   0x08016c11   Thumb Code     0  ibl_symbol_mbedtls ABSOLUTE
    mbedtls_internal_md5_process             0x08016e09   Thumb Code     0  ibl_symbol_mbedtls ABSOLUTE
    mbedtls_internal_sha1_process            0x08017911   Thumb Code     0  ibl_symbol_mbedtls ABSOLUTE
    mbedtls_internal_sha256_process          0x08018ef9   Thumb Code     0  ibl_symbol_mbedtls ABSOLUTE
    mbedtls_internal_sha512_process          0x0801989d   Thumb Code     0  ibl_symbol_mbedtls ABSOLUTE
    mbedtls_md                               0x0801a3c5   Thumb Code     0  ibl_symbol_mbedtls ABSOLUTE
    mbedtls_md5                              0x0801a3f9   Thumb Code     0  ibl_symbol_mbedtls ABSOLUTE
    mbedtls_md5_clone                        0x0801a411   Thumb Code     0  ibl_symbol_mbedtls ABSOLUTE
    mbedtls_md5_finish                       0x0801a429   Thumb Code     0  ibl_symbol_mbedtls ABSOLUTE
    mbedtls_md5_finish_ret                   0x0801a43d   Thumb Code     0  ibl_symbol_mbedtls ABSOLUTE
    mbedtls_md5_free                         0x0801a5bd   Thumb Code     0  ibl_symbol_mbedtls ABSOLUTE
    mbedtls_md5_init                         0x0801a5d9   Thumb Code     0  ibl_symbol_mbedtls ABSOLUTE
    mbedtls_md5_process                      0x0801a5ed   Thumb Code     0  ibl_symbol_mbedtls ABSOLUTE
    mbedtls_md5_ret                          0x0801a601   Thumb Code     0  ibl_symbol_mbedtls ABSOLUTE
    mbedtls_md5_starts                       0x0801a639   Thumb Code     0  ibl_symbol_mbedtls ABSOLUTE
    mbedtls_md5_starts_ret                   0x0801a649   Thumb Code     0  ibl_symbol_mbedtls ABSOLUTE
    mbedtls_md5_update                       0x0801a68d   Thumb Code     0  ibl_symbol_mbedtls ABSOLUTE
    mbedtls_md5_update_ret                   0x0801a6a5   Thumb Code     0  ibl_symbol_mbedtls ABSOLUTE
    mbedtls_md_clone                         0x0801a789   Thumb Code     0  ibl_symbol_mbedtls ABSOLUTE
    mbedtls_md_finish                        0x0801a7e1   Thumb Code     0  ibl_symbol_mbedtls ABSOLUTE
    mbedtls_md_free                          0x0801a819   Thumb Code     0  ibl_symbol_mbedtls ABSOLUTE
    mbedtls_md_get_name                      0x0801a871   Thumb Code     0  ibl_symbol_mbedtls ABSOLUTE
    mbedtls_md_get_size                      0x0801a891   Thumb Code     0  ibl_symbol_mbedtls ABSOLUTE
    mbedtls_md_get_type                      0x0801a8b5   Thumb Code     0  ibl_symbol_mbedtls ABSOLUTE
    mbedtls_md_hmac                          0x0801a8d5   Thumb Code     0  ibl_symbol_mbedtls ABSOLUTE
    mbedtls_md_hmac_finish                   0x0801a95d   Thumb Code     0  ibl_symbol_mbedtls ABSOLUTE
    mbedtls_md_hmac_reset                    0x0801aa0d   Thumb Code     0  ibl_symbol_mbedtls ABSOLUTE
    mbedtls_md_hmac_starts                   0x0801aa69   Thumb Code     0  ibl_symbol_mbedtls ABSOLUTE
    mbedtls_md_hmac_update                   0x0801ab91   Thumb Code     0  ibl_symbol_mbedtls ABSOLUTE
    mbedtls_md_info_from_string              0x0801abd5   Thumb Code     0  ibl_symbol_mbedtls ABSOLUTE
    mbedtls_md_info_from_type                0x0801acad   Thumb Code     0  ibl_symbol_mbedtls ABSOLUTE
    mbedtls_md_init                          0x0801ad1d   Thumb Code     0  ibl_symbol_mbedtls ABSOLUTE
    mbedtls_md_init_ctx                      0x0801ad31   Thumb Code     0  ibl_symbol_mbedtls ABSOLUTE
    mbedtls_md_list                          0x0801ad49   Thumb Code     0  ibl_symbol_mbedtls ABSOLUTE
    mbedtls_md_process                       0x0801ad55   Thumb Code     0  ibl_symbol_mbedtls ABSOLUTE
    mbedtls_md_setup                         0x0801ad8d   Thumb Code     0  ibl_symbol_mbedtls ABSOLUTE
    mbedtls_md_starts                        0x0801ae11   Thumb Code     0  ibl_symbol_mbedtls ABSOLUTE
    mbedtls_md_update                        0x0801ae45   Thumb Code     0  ibl_symbol_mbedtls ABSOLUTE
    mbedtls_memory_buffer_alloc_free         0x0801ae81   Thumb Code     0  ibl_symbol_mbedtls ABSOLUTE
    mbedtls_memory_buffer_alloc_init         0x0801ae95   Thumb Code     0  ibl_symbol_mbedtls ABSOLUTE
    mbedtls_memory_buffer_alloc_verify       0x0801af3d   Thumb Code     0  ibl_symbol_mbedtls ABSOLUTE
    mbedtls_memory_buffer_set_verify         0x0801af45   Thumb Code     0  ibl_symbol_mbedtls ABSOLUTE
    mbedtls_mpi_add_abs                      0x0801af59   Thumb Code     0  ibl_symbol_mbedtls ABSOLUTE
    mbedtls_mpi_add_int                      0x0801b0c5   Thumb Code     0  ibl_symbol_mbedtls ABSOLUTE
    mbedtls_mpi_add_mpi                      0x0801b119   Thumb Code     0  ibl_symbol_mbedtls ABSOLUTE
    mbedtls_mpi_bitlen                       0x0801b1bd   Thumb Code     0  ibl_symbol_mbedtls ABSOLUTE
    mbedtls_mpi_cmp_abs                      0x0801b221   Thumb Code     0  ibl_symbol_mbedtls ABSOLUTE
    mbedtls_mpi_cmp_int                      0x0801b321   Thumb Code     0  ibl_symbol_mbedtls ABSOLUTE
    mbedtls_mpi_cmp_mpi                      0x0801b36d   Thumb Code     0  ibl_symbol_mbedtls ABSOLUTE
    mbedtls_mpi_copy                         0x0801b4ad   Thumb Code     0  ibl_symbol_mbedtls ABSOLUTE
    mbedtls_mpi_div_int                      0x0801b575   Thumb Code     0  ibl_symbol_mbedtls ABSOLUTE
    mbedtls_mpi_div_mpi                      0x0801b5c9   Thumb Code     0  ibl_symbol_mbedtls ABSOLUTE
    mbedtls_mpi_exp_mod                      0x0801ba81   Thumb Code     0  ibl_symbol_mbedtls ABSOLUTE
    mbedtls_mpi_exp_mod_sw                   0x0801bbf5   Thumb Code     0  ibl_symbol_mbedtls ABSOLUTE
    mbedtls_mpi_fill_random                  0x0801c371   Thumb Code     0  ibl_symbol_mbedtls ABSOLUTE
    mbedtls_mpi_free                         0x0801c40d   Thumb Code     0  ibl_symbol_mbedtls ABSOLUTE
    mbedtls_mpi_gcd                          0x0801c44d   Thumb Code     0  ibl_symbol_mbedtls ABSOLUTE
    mbedtls_mpi_gen_prime                    0x0801c5dd   Thumb Code     0  ibl_symbol_mbedtls ABSOLUTE
    mbedtls_mpi_get_bit                      0x0801c915   Thumb Code     0  ibl_symbol_mbedtls ABSOLUTE
    mbedtls_mpi_grow                         0x0801c955   Thumb Code     0  ibl_symbol_mbedtls ABSOLUTE
    mbedtls_mpi_init                         0x0801c9dd   Thumb Code     0  ibl_symbol_mbedtls ABSOLUTE
    mbedtls_mpi_inv_mod                      0x0801c9f9   Thumb Code     0  ibl_symbol_mbedtls ABSOLUTE
    mbedtls_mpi_is_prime                     0x0801cd99   Thumb Code     0  ibl_symbol_mbedtls ABSOLUTE
    mbedtls_mpi_is_prime_ext                 0x0801cdbd   Thumb Code     0  ibl_symbol_mbedtls ABSOLUTE
    mbedtls_mpi_lsb                          0x0801ce49   Thumb Code     0  ibl_symbol_mbedtls ABSOLUTE
    mbedtls_mpi_lset                         0x0801ceb5   Thumb Code     0  ibl_symbol_mbedtls ABSOLUTE
    mbedtls_mpi_mod_int                      0x0801cf1d   Thumb Code     0  ibl_symbol_mbedtls ABSOLUTE
    mbedtls_mpi_mod_mpi                      0x0801d021   Thumb Code     0  ibl_symbol_mbedtls ABSOLUTE
    mbedtls_mpi_mul_int                      0x0801d0c9   Thumb Code     0  ibl_symbol_mbedtls ABSOLUTE
    mbedtls_mpi_mul_mpi                      0x0801d0f9   Thumb Code     0  ibl_symbol_mbedtls ABSOLUTE
    mbedtls_mpi_read_binary                  0x0801d39d   Thumb Code     0  ibl_symbol_mbedtls ABSOLUTE
    mbedtls_mpi_read_string                  0x0801d43d   Thumb Code     0  ibl_symbol_mbedtls ABSOLUTE
    mbedtls_mpi_safe_cond_assign             0x0801d61d   Thumb Code     0  ibl_symbol_mbedtls ABSOLUTE
    mbedtls_mpi_safe_cond_swap               0x0801d6f5   Thumb Code     0  ibl_symbol_mbedtls ABSOLUTE
    mbedtls_mpi_set_bit                      0x0801d811   Thumb Code     0  ibl_symbol_mbedtls ABSOLUTE
    mbedtls_mpi_shift_l                      0x0801d8c1   Thumb Code     0  ibl_symbol_mbedtls ABSOLUTE
    mbedtls_mpi_shift_r                      0x0801d9e9   Thumb Code     0  ibl_symbol_mbedtls ABSOLUTE
    mbedtls_mpi_shrink                       0x0801db05   Thumb Code     0  ibl_symbol_mbedtls ABSOLUTE
    mbedtls_mpi_size                         0x0801dbd5   Thumb Code     0  ibl_symbol_mbedtls ABSOLUTE
    mbedtls_mpi_sub_abs                      0x0801dbe9   Thumb Code     0  ibl_symbol_mbedtls ABSOLUTE
    mbedtls_mpi_sub_int                      0x0801dcb9   Thumb Code     0  ibl_symbol_mbedtls ABSOLUTE
    mbedtls_mpi_sub_mpi                      0x0801dd0d   Thumb Code     0  ibl_symbol_mbedtls ABSOLUTE
    mbedtls_mpi_swap                         0x0801ddb1   Thumb Code     0  ibl_symbol_mbedtls ABSOLUTE
    mbedtls_mpi_write_binary                 0x0801dde9   Thumb Code     0  ibl_symbol_mbedtls ABSOLUTE
    mbedtls_mpi_write_string                 0x0801deb9   Thumb Code     0  ibl_symbol_mbedtls ABSOLUTE
    mbedtls_oid_get_attr_short_name          0x0801e089   Thumb Code     0  ibl_symbol_mbedtls ABSOLUTE
    mbedtls_oid_get_cipher_alg               0x0801e0bd   Thumb Code     0  ibl_symbol_mbedtls ABSOLUTE
    mbedtls_oid_get_ec_grp                   0x0801e0f1   Thumb Code     0  ibl_symbol_mbedtls ABSOLUTE
    mbedtls_oid_get_extended_key_usage       0x0801e125   Thumb Code     0  ibl_symbol_mbedtls ABSOLUTE
    mbedtls_oid_get_md_alg                   0x0801e159   Thumb Code     0  ibl_symbol_mbedtls ABSOLUTE
    mbedtls_oid_get_md_hmac                  0x0801e18d   Thumb Code     0  ibl_symbol_mbedtls ABSOLUTE
    mbedtls_oid_get_numeric_string           0x0801e1c1   Thumb Code     0  ibl_symbol_mbedtls ABSOLUTE
    mbedtls_oid_get_oid_by_ec_grp            0x0801e305   Thumb Code     0  ibl_symbol_mbedtls ABSOLUTE
    mbedtls_oid_get_oid_by_md                0x0801e359   Thumb Code     0  ibl_symbol_mbedtls ABSOLUTE
    mbedtls_oid_get_oid_by_pk_alg            0x0801e3ad   Thumb Code     0  ibl_symbol_mbedtls ABSOLUTE
    mbedtls_oid_get_oid_by_sig_alg           0x0801e401   Thumb Code     0  ibl_symbol_mbedtls ABSOLUTE
    mbedtls_oid_get_pk_alg                   0x0801e465   Thumb Code     0  ibl_symbol_mbedtls ABSOLUTE
    mbedtls_oid_get_pkcs12_pbe_alg           0x0801e499   Thumb Code     0  ibl_symbol_mbedtls ABSOLUTE
    mbedtls_oid_get_sig_alg                  0x0801e4d5   Thumb Code     0  ibl_symbol_mbedtls ABSOLUTE
    mbedtls_oid_get_sig_alg_desc             0x0801e511   Thumb Code     0  ibl_symbol_mbedtls ABSOLUTE
    mbedtls_oid_get_x509_ext_type            0x0801e545   Thumb Code     0  ibl_symbol_mbedtls ABSOLUTE
    mbedtls_pem_free                         0x0801e579   Thumb Code     0  ibl_symbol_mbedtls ABSOLUTE
    mbedtls_pem_init                         0x0801e5b1   Thumb Code     0  ibl_symbol_mbedtls ABSOLUTE
    mbedtls_pem_read_buffer                  0x0801e5c5   Thumb Code     0  ibl_symbol_mbedtls ABSOLUTE
    mbedtls_pem_write_buffer                 0x0801ead5   Thumb Code     0  ibl_symbol_mbedtls ABSOLUTE
    mbedtls_pk_can_do                        0x0801ec51   Thumb Code     0  ibl_symbol_mbedtls ABSOLUTE
    mbedtls_pk_check_pair                    0x0801ec81   Thumb Code     0  ibl_symbol_mbedtls ABSOLUTE
    mbedtls_pk_debug                         0x0801ed1d   Thumb Code     0  ibl_symbol_mbedtls ABSOLUTE
    mbedtls_pk_decrypt                       0x0801ed6d   Thumb Code     0  ibl_symbol_mbedtls ABSOLUTE
    mbedtls_pk_encrypt                       0x0801ee19   Thumb Code     0  ibl_symbol_mbedtls ABSOLUTE
    mbedtls_pk_free                          0x0801eea1   Thumb Code     0  ibl_symbol_mbedtls ABSOLUTE
    mbedtls_pk_get_bitlen                    0x0801eed1   Thumb Code     0  ibl_symbol_mbedtls ABSOLUTE
    mbedtls_pk_get_name                      0x0801ef15   Thumb Code     0  ibl_symbol_mbedtls ABSOLUTE
    mbedtls_pk_get_type                      0x0801ef45   Thumb Code     0  ibl_symbol_mbedtls ABSOLUTE
    mbedtls_pk_info_from_type                0x0801ef6d   Thumb Code     0  ibl_symbol_mbedtls ABSOLUTE
    mbedtls_pk_init                          0x0801efd5   Thumb Code     0  ibl_symbol_mbedtls ABSOLUTE
    mbedtls_pk_parse_key                     0x0801efed   Thumb Code     0  ibl_symbol_mbedtls ABSOLUTE
    mbedtls_pk_parse_public_key              0x0801f3e1   Thumb Code     0  ibl_symbol_mbedtls ABSOLUTE
    mbedtls_pk_parse_subpubkey               0x0801f5ed   Thumb Code     0  ibl_symbol_mbedtls ABSOLUTE
    mbedtls_pk_setup                         0x0801f7cd   Thumb Code     0  ibl_symbol_mbedtls ABSOLUTE
    mbedtls_pk_setup_rsa_alt                 0x0801f821   Thumb Code     0  ibl_symbol_mbedtls ABSOLUTE
    mbedtls_pk_sign                          0x0801f89d   Thumb Code     0  ibl_symbol_mbedtls ABSOLUTE
    mbedtls_pk_sign_restartable              0x0801f8ed   Thumb Code     0  ibl_symbol_mbedtls ABSOLUTE
    mbedtls_pk_verify                        0x0801f981   Thumb Code     0  ibl_symbol_mbedtls ABSOLUTE
    mbedtls_pk_verify_ext                    0x0801f9bd   Thumb Code     0  ibl_symbol_mbedtls ABSOLUTE
    mbedtls_pk_verify_restartable            0x0801faf5   Thumb Code     0  ibl_symbol_mbedtls ABSOLUTE
    mbedtls_pk_write_key_der                 0x0801fb79   Thumb Code     0  ibl_symbol_mbedtls ABSOLUTE
    mbedtls_pk_write_key_pem                 0x08020059   Thumb Code     0  ibl_symbol_mbedtls ABSOLUTE
    mbedtls_pk_write_pubkey                  0x08020151   Thumb Code     0  ibl_symbol_mbedtls ABSOLUTE
    mbedtls_pk_write_pubkey_der              0x08020219   Thumb Code     0  ibl_symbol_mbedtls ABSOLUTE
    mbedtls_pk_write_pubkey_pem              0x080203d1   Thumb Code     0  ibl_symbol_mbedtls ABSOLUTE
    mbedtls_pkcs12_derivation                0x08020475   Thumb Code     0  ibl_symbol_mbedtls ABSOLUTE
    mbedtls_pkcs12_pbe                       0x08020701   Thumb Code     0  ibl_symbol_mbedtls ABSOLUTE
    mbedtls_pkcs12_pbe_sha1_rc4_128          0x08020835   Thumb Code     0  ibl_symbol_mbedtls ABSOLUTE
    mbedtls_pkcs5_pbes2                      0x080208c1   Thumb Code     0  ibl_symbol_mbedtls ABSOLUTE
    mbedtls_pkcs5_pbkdf2_hmac                0x08020add   Thumb Code     0  ibl_symbol_mbedtls ABSOLUTE
    mbedtls_platform_set_calloc_free         0x08020c81   Thumb Code     0  ibl_symbol_mbedtls ABSOLUTE
    mbedtls_platform_set_hardware_poll       0x08020ca5   Thumb Code     0  ibl_symbol_mbedtls ABSOLUTE
    mbedtls_platform_set_printf              0x08020cbd   Thumb Code     0  ibl_symbol_mbedtls ABSOLUTE
    mbedtls_platform_set_snprintf            0x08020cd5   Thumb Code     0  ibl_symbol_mbedtls ABSOLUTE
    mbedtls_platform_set_time                0x08020ced   Thumb Code     0  ibl_symbol_mbedtls ABSOLUTE
    mbedtls_platform_setup                   0x08020d05   Thumb Code     0  ibl_symbol_mbedtls ABSOLUTE
    mbedtls_platform_teardown                0x08020d11   Thumb Code     0  ibl_symbol_mbedtls ABSOLUTE
    mbedtls_platform_zeroize                 0x08020d19   Thumb Code     0  ibl_symbol_mbedtls ABSOLUTE
    mbedtls_rsa_check_privkey                0x08020d31   Thumb Code     0  ibl_symbol_mbedtls ABSOLUTE
    mbedtls_rsa_check_pub_priv               0x08020de5   Thumb Code     0  ibl_symbol_mbedtls ABSOLUTE
    mbedtls_rsa_check_pubkey                 0x08020e4d   Thumb Code     0  ibl_symbol_mbedtls ABSOLUTE
    mbedtls_rsa_complete                     0x08020ed1   Thumb Code     0  ibl_symbol_mbedtls ABSOLUTE
    mbedtls_rsa_copy                         0x0802115d   Thumb Code     0  ibl_symbol_mbedtls ABSOLUTE
    mbedtls_rsa_deduce_crt                   0x080212e5   Thumb Code     0  ibl_symbol_mbedtls ABSOLUTE
    mbedtls_rsa_deduce_primes                0x08021399   Thumb Code     0  ibl_symbol_mbedtls ABSOLUTE
    mbedtls_rsa_deduce_private_exponent      0x08021631   Thumb Code     0  ibl_symbol_mbedtls ABSOLUTE
    mbedtls_rsa_export                       0x08021739   Thumb Code     0  ibl_symbol_mbedtls ABSOLUTE
    mbedtls_rsa_export_crt                   0x0802186d   Thumb Code     0  ibl_symbol_mbedtls ABSOLUTE
    mbedtls_rsa_export_raw                   0x0802195d   Thumb Code     0  ibl_symbol_mbedtls ABSOLUTE
    mbedtls_rsa_free                         0x08021ad5   Thumb Code     0  ibl_symbol_mbedtls ABSOLUTE
    mbedtls_rsa_gen_key                      0x08021b51   Thumb Code     0  ibl_symbol_mbedtls ABSOLUTE
    mbedtls_rsa_get_len                      0x08021e41   Thumb Code     0  ibl_symbol_mbedtls ABSOLUTE
    mbedtls_rsa_import                       0x08021e4d   Thumb Code     0  ibl_symbol_mbedtls ABSOLUTE
    mbedtls_rsa_import_raw                   0x08021efd   Thumb Code     0  ibl_symbol_mbedtls ABSOLUTE
    mbedtls_rsa_init                         0x08021ff9   Thumb Code     0  ibl_symbol_mbedtls ABSOLUTE
    mbedtls_rsa_pkcs1_decrypt                0x08022025   Thumb Code     0  ibl_symbol_mbedtls ABSOLUTE
    mbedtls_rsa_pkcs1_encrypt                0x080220e1   Thumb Code     0  ibl_symbol_mbedtls ABSOLUTE
    mbedtls_rsa_pkcs1_sign                   0x08022189   Thumb Code     0  ibl_symbol_mbedtls ABSOLUTE
    mbedtls_rsa_pkcs1_verify                 0x08022235   Thumb Code     0  ibl_symbol_mbedtls ABSOLUTE
    mbedtls_rsa_private                      0x080222e1   Thumb Code     0  ibl_symbol_mbedtls ABSOLUTE
    mbedtls_rsa_private_sw                   0x080223b9   Thumb Code     0  ibl_symbol_mbedtls ABSOLUTE
    mbedtls_rsa_public                       0x08022761   Thumb Code     0  ibl_symbol_mbedtls ABSOLUTE
    mbedtls_rsa_rsaes_oaep_decrypt           0x0802282d   Thumb Code     0  ibl_symbol_mbedtls ABSOLUTE
    mbedtls_rsa_rsaes_oaep_encrypt           0x08022b99   Thumb Code     0  ibl_symbol_mbedtls ABSOLUTE
    mbedtls_rsa_rsaes_pkcs1_v15_decrypt      0x08022d95   Thumb Code     0  ibl_symbol_mbedtls ABSOLUTE
    mbedtls_rsa_rsaes_pkcs1_v15_encrypt      0x080230b9   Thumb Code     0  ibl_symbol_mbedtls ABSOLUTE
    mbedtls_rsa_rsassa_pkcs1_v15_sign        0x08023235   Thumb Code     0  ibl_symbol_mbedtls ABSOLUTE
    mbedtls_rsa_rsassa_pkcs1_v15_verify      0x08023371   Thumb Code     0  ibl_symbol_mbedtls ABSOLUTE
    mbedtls_rsa_rsassa_pss_sign              0x0802349d   Thumb Code     0  ibl_symbol_mbedtls ABSOLUTE
    mbedtls_rsa_rsassa_pss_verify            0x08023729   Thumb Code     0  ibl_symbol_mbedtls ABSOLUTE
    mbedtls_rsa_rsassa_pss_verify_ext        0x080237ad   Thumb Code     0  ibl_symbol_mbedtls ABSOLUTE
    mbedtls_rsa_set_padding                  0x08023b75   Thumb Code     0  ibl_symbol_mbedtls ABSOLUTE
    mbedtls_rsa_validate_crt                 0x08023b99   Thumb Code     0  ibl_symbol_mbedtls ABSOLUTE
    mbedtls_rsa_validate_params              0x08023d59   Thumb Code     0  ibl_symbol_mbedtls ABSOLUTE
    mbedtls_sha1                             0x0802402d   Thumb Code     0  ibl_symbol_mbedtls ABSOLUTE
    mbedtls_sha1_clone                       0x08024045   Thumb Code     0  ibl_symbol_mbedtls ABSOLUTE
    mbedtls_sha1_finish                      0x08024065   Thumb Code     0  ibl_symbol_mbedtls ABSOLUTE
    mbedtls_sha1_finish_ret                  0x08024079   Thumb Code     0  ibl_symbol_mbedtls ABSOLUTE
    mbedtls_sha1_free                        0x08024221   Thumb Code     0  ibl_symbol_mbedtls ABSOLUTE
    mbedtls_sha1_init                        0x0802423d   Thumb Code     0  ibl_symbol_mbedtls ABSOLUTE
    mbedtls_sha1_process                     0x08024255   Thumb Code     0  ibl_symbol_mbedtls ABSOLUTE
    mbedtls_sha1_ret                         0x08024269   Thumb Code     0  ibl_symbol_mbedtls ABSOLUTE
    mbedtls_sha1_starts                      0x0802429d   Thumb Code     0  ibl_symbol_mbedtls ABSOLUTE
    mbedtls_sha1_starts_ret                  0x080242ad   Thumb Code     0  ibl_symbol_mbedtls ABSOLUTE
    mbedtls_sha1_update                      0x08024301   Thumb Code     0  ibl_symbol_mbedtls ABSOLUTE
    mbedtls_sha1_update_ret                  0x08024319   Thumb Code     0  ibl_symbol_mbedtls ABSOLUTE
    mbedtls_sha256                           0x08024405   Thumb Code     0  ibl_symbol_mbedtls ABSOLUTE
    mbedtls_sha256_clone                     0x08024421   Thumb Code     0  ibl_symbol_mbedtls ABSOLUTE
    mbedtls_sha256_finish                    0x08024441   Thumb Code     0  ibl_symbol_mbedtls ABSOLUTE
    mbedtls_sha256_finish_ret                0x08024455   Thumb Code     0  ibl_symbol_mbedtls ABSOLUTE
    mbedtls_sha256_free                      0x0802469d   Thumb Code     0  ibl_symbol_mbedtls ABSOLUTE
    mbedtls_sha256_init                      0x080246b9   Thumb Code     0  ibl_symbol_mbedtls ABSOLUTE
    mbedtls_sha256_process                   0x080246d1   Thumb Code     0  ibl_symbol_mbedtls ABSOLUTE
    mbedtls_sha256_ret                       0x080246e5   Thumb Code     0  ibl_symbol_mbedtls ABSOLUTE
    mbedtls_sha256_starts                    0x0802472d   Thumb Code     0  ibl_symbol_mbedtls ABSOLUTE
    mbedtls_sha256_starts_ret                0x08024741   Thumb Code     0  ibl_symbol_mbedtls ABSOLUTE
    mbedtls_sha256_update                    0x08024831   Thumb Code     0  ibl_symbol_mbedtls ABSOLUTE
    mbedtls_sha256_update_ret                0x08024849   Thumb Code     0  ibl_symbol_mbedtls ABSOLUTE
    mbedtls_sha512                           0x08024935   Thumb Code     0  ibl_symbol_mbedtls ABSOLUTE
    mbedtls_sha512_clone                     0x08024951   Thumb Code     0  ibl_symbol_mbedtls ABSOLUTE
    mbedtls_sha512_finish                    0x08024971   Thumb Code     0  ibl_symbol_mbedtls ABSOLUTE
    mbedtls_sha512_finish_ret                0x08024985   Thumb Code     0  ibl_symbol_mbedtls ABSOLUTE
    mbedtls_sha512_free                      0x08024d9d   Thumb Code     0  ibl_symbol_mbedtls ABSOLUTE
    mbedtls_sha512_init                      0x08024db9   Thumb Code     0  ibl_symbol_mbedtls ABSOLUTE
    mbedtls_sha512_process                   0x08024dd1   Thumb Code     0  ibl_symbol_mbedtls ABSOLUTE
    mbedtls_sha512_ret                       0x08024de5   Thumb Code     0  ibl_symbol_mbedtls ABSOLUTE
    mbedtls_sha512_starts                    0x08024e45   Thumb Code     0  ibl_symbol_mbedtls ABSOLUTE
    mbedtls_sha512_starts_ret                0x08024e59   Thumb Code     0  ibl_symbol_mbedtls ABSOLUTE
    mbedtls_sha512_update                    0x08024ff1   Thumb Code     0  ibl_symbol_mbedtls ABSOLUTE
    mbedtls_sha512_update_ret                0x08025009   Thumb Code     0  ibl_symbol_mbedtls ABSOLUTE
    mbedtls_ssl_ciphersuite_from_id          0x0802510d   Thumb Code     0  ibl_symbol_mbedtls ABSOLUTE
    mbedtls_ssl_ciphersuite_from_string      0x0802514d   Thumb Code     0  ibl_symbol_mbedtls ABSOLUTE
    mbedtls_ssl_ciphersuite_uses_ec          0x0802519d   Thumb Code     0  ibl_symbol_mbedtls ABSOLUTE
    mbedtls_ssl_ciphersuite_uses_psk         0x080251cd   Thumb Code     0  ibl_symbol_mbedtls ABSOLUTE
    mbedtls_ssl_get_ciphersuite_id           0x08025419   Thumb Code     0  ibl_symbol_mbedtls ABSOLUTE
    mbedtls_ssl_get_ciphersuite_name         0x08025441   Thumb Code     0  ibl_symbol_mbedtls ABSOLUTE
    mbedtls_ssl_get_ciphersuite_sig_alg      0x08025471   Thumb Code     0  ibl_symbol_mbedtls ABSOLUTE
    mbedtls_ssl_get_ciphersuite_sig_pk_alg   0x080254a5   Thumb Code     0  ibl_symbol_mbedtls ABSOLUTE
    mbedtls_ssl_list_ciphersuites            0x080254f1   Thumb Code     0  ibl_symbol_mbedtls ABSOLUTE
    mbedtls_strerror                         0x08025929   Thumb Code     0  ibl_symbol_mbedtls ABSOLUTE
    mbedtls_time                             0x08025945   Thumb Code     0  ibl_symbol_mbedtls ABSOLUTE
    mbedtls_x509_crl_free                    0x0802598d   Thumb Code     0  ibl_symbol_mbedtls ABSOLUTE
    mbedtls_x509_crl_info                    0x08025a65   Thumb Code     0  ibl_symbol_mbedtls ABSOLUTE
    mbedtls_x509_crl_init                    0x08025f0d   Thumb Code     0  ibl_symbol_mbedtls ABSOLUTE
    mbedtls_x509_crl_parse                   0x08025f21   Thumb Code     0  ibl_symbol_mbedtls ABSOLUTE
    mbedtls_x509_crl_parse_der               0x0802602d   Thumb Code     0  ibl_symbol_mbedtls ABSOLUTE
    mbedtls_x509_crt_check_extended_key_usage 0x0802643d   Thumb Code     0  ibl_symbol_mbedtls ABSOLUTE
    mbedtls_x509_crt_check_key_usage         0x080264e5   Thumb Code     0  ibl_symbol_mbedtls ABSOLUTE
    mbedtls_x509_crt_free                    0x08026561   Thumb Code     0  ibl_symbol_mbedtls ABSOLUTE
    mbedtls_x509_crt_info                    0x080266a1   Thumb Code     0  ibl_symbol_mbedtls ABSOLUTE
    mbedtls_x509_crt_init                    0x08026e95   Thumb Code     0  ibl_symbol_mbedtls ABSOLUTE
    mbedtls_x509_crt_is_revoked              0x08026ead   Thumb Code     0  ibl_symbol_mbedtls ABSOLUTE
    mbedtls_x509_crt_parse                   0x08026f25   Thumb Code     0  ibl_symbol_mbedtls ABSOLUTE
    mbedtls_x509_crt_parse_der               0x080270a1   Thumb Code     0  ibl_symbol_mbedtls ABSOLUTE
    mbedtls_x509_crt_parse_der_nocopy        0x080271b5   Thumb Code     0  ibl_symbol_mbedtls ABSOLUTE
    mbedtls_x509_crt_verify                  0x080271d1   Thumb Code     0  ibl_symbol_mbedtls ABSOLUTE
    mbedtls_x509_crt_verify_info             0x08027221   Thumb Code     0  ibl_symbol_mbedtls ABSOLUTE
    mbedtls_x509_crt_verify_restartable      0x08027331   Thumb Code     0  ibl_symbol_mbedtls ABSOLUTE
    mbedtls_x509_crt_verify_with_profile     0x08027445   Thumb Code     0  ibl_symbol_mbedtls ABSOLUTE
    mbedtls_x509_csr_free                    0x08027495   Thumb Code     0  ibl_symbol_mbedtls ABSOLUTE
    mbedtls_x509_csr_info                    0x08027505   Thumb Code     0  ibl_symbol_mbedtls ABSOLUTE
    mbedtls_x509_csr_init                    0x08027755   Thumb Code     0  ibl_symbol_mbedtls ABSOLUTE
    mbedtls_x509_csr_parse                   0x08027769   Thumb Code     0  ibl_symbol_mbedtls ABSOLUTE
    mbedtls_x509_csr_parse_der               0x08027841   Thumb Code     0  ibl_symbol_mbedtls ABSOLUTE
    mbedtls_x509_dn_gets                     0x08027abd   Thumb Code     0  ibl_symbol_mbedtls ABSOLUTE
    mbedtls_x509_get_alg                     0x08027cd1   Thumb Code     0  ibl_symbol_mbedtls ABSOLUTE
    mbedtls_x509_get_alg_null                0x08027d05   Thumb Code     0  ibl_symbol_mbedtls ABSOLUTE
    mbedtls_x509_get_ext                     0x08027d35   Thumb Code     0  ibl_symbol_mbedtls ABSOLUTE
    mbedtls_x509_get_name                    0x08027dd5   Thumb Code     0  ibl_symbol_mbedtls ABSOLUTE
    mbedtls_x509_get_rsassa_pss_params       0x08027e99   Thumb Code     0  ibl_symbol_mbedtls ABSOLUTE
    mbedtls_x509_get_serial                  0x08028135   Thumb Code     0  ibl_symbol_mbedtls ABSOLUTE
    mbedtls_x509_get_sig                     0x080281c9   Thumb Code     0  ibl_symbol_mbedtls ABSOLUTE
    mbedtls_x509_get_sig_alg                 0x08028239   Thumb Code     0  ibl_symbol_mbedtls ABSOLUTE
    mbedtls_x509_get_time                    0x080282f9   Thumb Code     0  ibl_symbol_mbedtls ABSOLUTE
    mbedtls_x509_key_size_helper             0x08028391   Thumb Code     0  ibl_symbol_mbedtls ABSOLUTE
    mbedtls_x509_serial_gets                 0x08028401   Thumb Code     0  ibl_symbol_mbedtls ABSOLUTE
    mbedtls_x509_set_extension               0x08028545   Thumb Code     0  ibl_symbol_mbedtls ABSOLUTE
    mbedtls_x509_sig_alg_gets                0x080285a5   Thumb Code     0  ibl_symbol_mbedtls ABSOLUTE
    mbedtls_x509_string_to_names             0x08028721   Thumb Code     0  ibl_symbol_mbedtls ABSOLUTE
    mbedtls_x509_time_is_future              0x080288d9   Thumb Code     0  ibl_symbol_mbedtls ABSOLUTE
    mbedtls_x509_time_is_past                0x080288e5   Thumb Code     0  ibl_symbol_mbedtls ABSOLUTE
    mbedtls_x509_write_extensions            0x080288f1   Thumb Code     0  ibl_symbol_mbedtls ABSOLUTE
    mbedtls_x509_write_names                 0x08028949   Thumb Code     0  ibl_symbol_mbedtls ABSOLUTE
    mbedtls_x509_write_sig                   0x080289f1   Thumb Code     0  ibl_symbol_mbedtls ABSOLUTE
    mbedtls_x509write_crt_der                0x08028b01   Thumb Code     0  ibl_symbol_mbedtls ABSOLUTE
    mbedtls_x509write_crt_free               0x08029149   Thumb Code     0  ibl_symbol_mbedtls ABSOLUTE
    mbedtls_x509write_crt_init               0x0802917d   Thumb Code     0  ibl_symbol_mbedtls ABSOLUTE
    mbedtls_x509write_crt_pem                0x080291a1   Thumb Code     0  ibl_symbol_mbedtls ABSOLUTE
    mbedtls_x509write_crt_set_authority_key_identifier 0x08029261   Thumb Code     0  ibl_symbol_mbedtls ABSOLUTE
    mbedtls_x509write_crt_set_basic_constraints 0x080293dd   Thumb Code     0  ibl_symbol_mbedtls ABSOLUTE
    mbedtls_x509write_crt_set_extension      0x080294fd   Thumb Code     0  ibl_symbol_mbedtls ABSOLUTE
    mbedtls_x509write_crt_set_issuer_key     0x08029535   Thumb Code     0  ibl_symbol_mbedtls ABSOLUTE
    mbedtls_x509write_crt_set_issuer_name    0x08029545   Thumb Code     0  ibl_symbol_mbedtls ABSOLUTE
    mbedtls_x509write_crt_set_key_usage      0x0802955d   Thumb Code     0  ibl_symbol_mbedtls ABSOLUTE
    mbedtls_x509write_crt_set_md_alg         0x08029611   Thumb Code     0  ibl_symbol_mbedtls ABSOLUTE
    mbedtls_x509write_crt_set_ns_cert_type   0x08029621   Thumb Code     0  ibl_symbol_mbedtls ABSOLUTE
    mbedtls_x509write_crt_set_serial         0x0802968d   Thumb Code     0  ibl_symbol_mbedtls ABSOLUTE
    mbedtls_x509write_crt_set_subject_key    0x080296b9   Thumb Code     0  ibl_symbol_mbedtls ABSOLUTE
    mbedtls_x509write_crt_set_subject_key_identifier 0x080296c9   Thumb Code     0  ibl_symbol_mbedtls ABSOLUTE
    mbedtls_x509write_crt_set_subject_name   0x080297e5   Thumb Code     0  ibl_symbol_mbedtls ABSOLUTE
    mbedtls_x509write_crt_set_validity       0x080297fd   Thumb Code     0  ibl_symbol_mbedtls ABSOLUTE
    mbedtls_x509write_crt_set_version        0x08029861   Thumb Code     0  ibl_symbol_mbedtls ABSOLUTE
    mbedtls_x509write_csr_der                0x08029871   Thumb Code     0  ibl_symbol_mbedtls ABSOLUTE
    mbedtls_x509write_csr_free               0x08029d95   Thumb Code     0  ibl_symbol_mbedtls ABSOLUTE
    mbedtls_x509write_csr_init               0x08029db9   Thumb Code     0  ibl_symbol_mbedtls ABSOLUTE
    mbedtls_x509write_csr_pem                0x08029dcd   Thumb Code     0  ibl_symbol_mbedtls ABSOLUTE
    mbedtls_x509write_csr_set_extension      0x08029e8d   Thumb Code     0  ibl_symbol_mbedtls ABSOLUTE
    mbedtls_x509write_csr_set_key            0x08029ec1   Thumb Code     0  ibl_symbol_mbedtls ABSOLUTE
    mbedtls_x509write_csr_set_key_usage      0x08029ed1   Thumb Code     0  ibl_symbol_mbedtls ABSOLUTE
    mbedtls_x509write_csr_set_md_alg         0x08029f39   Thumb Code     0  ibl_symbol_mbedtls ABSOLUTE
    mbedtls_x509write_csr_set_ns_cert_type   0x08029f49   Thumb Code     0  ibl_symbol_mbedtls ABSOLUTE
    mbedtls_x509write_csr_set_subject_name   0x08029fb1   Thumb Code     0  ibl_symbol_mbedtls ABSOLUTE
    mbedtls_xtea_crypt_cbc                   0x08029fc9   Thumb Code     0  ibl_symbol_mbedtls ABSOLUTE
    mbedtls_xtea_crypt_ecb                   0x0802a0c1   Thumb Code     0  ibl_symbol_mbedtls ABSOLUTE
    mbedtls_xtea_free                        0x0802a209   Thumb Code     0  ibl_symbol_mbedtls ABSOLUTE
    mbedtls_xtea_init                        0x0802a225   Thumb Code     0  ibl_symbol_mbedtls ABSOLUTE
    mbedtls_xtea_setup                       0x0802a239   Thumb Code     0  ibl_symbol_mbedtls ABSOLUTE
    x25519_ge_add                            0x0802ef7d   Thumb Code     0  ibl_symbol_mbedtls ABSOLUTE
    x25519_ge_frombytes_vartime              0x0802f031   Thumb Code     0  ibl_symbol_mbedtls ABSOLUTE
    x25519_ge_p1p1_to_p2                     0x0802f171   Thumb Code     0  ibl_symbol_mbedtls ABSOLUTE
    x25519_ge_p1p1_to_p3                     0x0802f1a9   Thumb Code     0  ibl_symbol_mbedtls ABSOLUTE
    x25519_ge_p3_to_cached                   0x0802f1f1   Thumb Code     0  ibl_symbol_mbedtls ABSOLUTE
    x25519_ge_sub                            0x0802f239   Thumb Code     0  ibl_symbol_mbedtls ABSOLUTE
    x25519_ge_tobytes                        0x0802f2ed   Thumb Code     0  ibl_symbol_mbedtls ABSOLUTE
    x25519_sc_reduce                         0x0802f33d   Thumb Code     0  ibl_symbol_mbedtls ABSOLUTE
    ciphersuite_preference_default           0x08037581   Data           0  ibl_symbol_mbedtls ABSOLUTE
    mbedtls_cipher_definitions               0x08037c89   Data           0  ibl_symbol_mbedtls ABSOLUTE
    mbedtls_ecdsa_info                       0x08037e21   Data           0  ibl_symbol_mbedtls ABSOLUTE
    mbedtls_eckey_info                       0x08037e51   Data           0  ibl_symbol_mbedtls ABSOLUTE
    mbedtls_eckeydh_info                     0x08037e81   Data           0  ibl_symbol_mbedtls ABSOLUTE
    mbedtls_ed25519_info                     0x08037eb1   Data           0  ibl_symbol_mbedtls ABSOLUTE
    mbedtls_md5_info                         0x08037ee1   Data           0  ibl_symbol_mbedtls ABSOLUTE
    mbedtls_rsa_alt_info                     0x08037f11   Data           0  ibl_symbol_mbedtls ABSOLUTE
    mbedtls_rsa_info                         0x08037f41   Data           0  ibl_symbol_mbedtls ABSOLUTE
    mbedtls_sha1_info                        0x08037f71   Data           0  ibl_symbol_mbedtls ABSOLUTE
    mbedtls_sha224_info                      0x08037fa1   Data           0  ibl_symbol_mbedtls ABSOLUTE
    mbedtls_sha256_info                      0x08037fd1   Data           0  ibl_symbol_mbedtls ABSOLUTE
    mbedtls_sha384_info                      0x08038001   Data           0  ibl_symbol_mbedtls ABSOLUTE
    mbedtls_sha512_info                      0x08038031   Data           0  ibl_symbol_mbedtls ABSOLUTE
    mbedtls_x509_crt_profile_next            0x08038071   Data           0  ibl_symbol_mbedtls ABSOLUTE
    mbedtls_x509_crt_profile_suiteb          0x08038081   Data           0  ibl_symbol_mbedtls ABSOLUTE
    __Vectors                                0x08061200   Data           4  startup_gd32f5xx_mbl.o(RESET)
    __Vectors_End                            0x080615cc   Data           0  startup_gd32f5xx_mbl.o(RESET)
    __main                                   0x080615cd   Thumb Code     0  entry.o(.ARM.Collect$$$$00000000)
    _main_stk                                0x080615cd   Thumb Code     0  entry3.o(.ARM.Collect$$$$00000002)
    _main_scatterload                        0x080615d1   Thumb Code     0  entry5.o(.ARM.Collect$$$$00000004)
    __main_after_scatterload                 0x080615d5   Thumb Code     0  entry5.o(.ARM.Collect$$$$00000004)
    _main_clock                              0x080615d5   Thumb Code     0  entry7b.o(.ARM.Collect$$$$00000008)
    _main_cpp_init                           0x080615d5   Thumb Code     0  entry8b.o(.ARM.Collect$$$$0000000A)
    _main_init                               0x080615d5   Thumb Code     0  entry9a.o(.ARM.Collect$$$$0000000B)
    __rt_final_cpp                           0x080615dd   Thumb Code     0  entry10a.o(.ARM.Collect$$$$0000000D)
    __rt_final_exit                          0x080615dd   Thumb Code     0  entry11a.o(.ARM.Collect$$$$0000000F)
    Reset_Handler                            0x080615e1   Thumb Code     8  startup_gd32f5xx_mbl.o(.text)
    ADC_IRQHandler                           0x080615fb   Thumb Code     0  startup_gd32f5xx_mbl.o(.text)
    CAN0_EWMC_IRQHandler                     0x080615fb   Thumb Code     0  startup_gd32f5xx_mbl.o(.text)
    CAN0_RX0_IRQHandler                      0x080615fb   Thumb Code     0  startup_gd32f5xx_mbl.o(.text)
    CAN0_RX1_IRQHandler                      0x080615fb   Thumb Code     0  startup_gd32f5xx_mbl.o(.text)
    CAN0_TX_IRQHandler                       0x080615fb   Thumb Code     0  startup_gd32f5xx_mbl.o(.text)
    CAN1_EWMC_IRQHandler                     0x080615fb   Thumb Code     0  startup_gd32f5xx_mbl.o(.text)
    CAN1_RX0_IRQHandler                      0x080615fb   Thumb Code     0  startup_gd32f5xx_mbl.o(.text)
    CAN1_RX1_IRQHandler                      0x080615fb   Thumb Code     0  startup_gd32f5xx_mbl.o(.text)
    CAN1_TX_IRQHandler                       0x080615fb   Thumb Code     0  startup_gd32f5xx_mbl.o(.text)
    CAU_IRQHandler                           0x080615fb   Thumb Code     0  startup_gd32f5xx_mbl.o(.text)
    DCI_IRQHandler                           0x080615fb   Thumb Code     0  startup_gd32f5xx_mbl.o(.text)
    DMA0_Channel0_IRQHandler                 0x080615fb   Thumb Code     0  startup_gd32f5xx_mbl.o(.text)
    DMA0_Channel1_IRQHandler                 0x080615fb   Thumb Code     0  startup_gd32f5xx_mbl.o(.text)
    DMA0_Channel2_IRQHandler                 0x080615fb   Thumb Code     0  startup_gd32f5xx_mbl.o(.text)
    DMA0_Channel3_IRQHandler                 0x080615fb   Thumb Code     0  startup_gd32f5xx_mbl.o(.text)
    DMA0_Channel4_IRQHandler                 0x080615fb   Thumb Code     0  startup_gd32f5xx_mbl.o(.text)
    DMA0_Channel5_IRQHandler                 0x080615fb   Thumb Code     0  startup_gd32f5xx_mbl.o(.text)
    DMA0_Channel6_IRQHandler                 0x080615fb   Thumb Code     0  startup_gd32f5xx_mbl.o(.text)
    DMA0_Channel7_IRQHandler                 0x080615fb   Thumb Code     0  startup_gd32f5xx_mbl.o(.text)
    DMA1_Channel0_IRQHandler                 0x080615fb   Thumb Code     0  startup_gd32f5xx_mbl.o(.text)
    DMA1_Channel1_IRQHandler                 0x080615fb   Thumb Code     0  startup_gd32f5xx_mbl.o(.text)
    DMA1_Channel2_IRQHandler                 0x080615fb   Thumb Code     0  startup_gd32f5xx_mbl.o(.text)
    DMA1_Channel3_IRQHandler                 0x080615fb   Thumb Code     0  startup_gd32f5xx_mbl.o(.text)
    DMA1_Channel4_IRQHandler                 0x080615fb   Thumb Code     0  startup_gd32f5xx_mbl.o(.text)
    DMA1_Channel5_IRQHandler                 0x080615fb   Thumb Code     0  startup_gd32f5xx_mbl.o(.text)
    DMA1_Channel6_IRQHandler                 0x080615fb   Thumb Code     0  startup_gd32f5xx_mbl.o(.text)
    DMA1_Channel7_IRQHandler                 0x080615fb   Thumb Code     0  startup_gd32f5xx_mbl.o(.text)
    ENET_IRQHandler                          0x080615fb   Thumb Code     0  startup_gd32f5xx_mbl.o(.text)
    ENET_WKUP_IRQHandler                     0x080615fb   Thumb Code     0  startup_gd32f5xx_mbl.o(.text)
    EXMC_IRQHandler                          0x080615fb   Thumb Code     0  startup_gd32f5xx_mbl.o(.text)
    EXTI0_IRQHandler                         0x080615fb   Thumb Code     0  startup_gd32f5xx_mbl.o(.text)
    EXTI10_15_IRQHandler                     0x080615fb   Thumb Code     0  startup_gd32f5xx_mbl.o(.text)
    EXTI1_IRQHandler                         0x080615fb   Thumb Code     0  startup_gd32f5xx_mbl.o(.text)
    EXTI2_IRQHandler                         0x080615fb   Thumb Code     0  startup_gd32f5xx_mbl.o(.text)
    EXTI3_IRQHandler                         0x080615fb   Thumb Code     0  startup_gd32f5xx_mbl.o(.text)
    EXTI4_IRQHandler                         0x080615fb   Thumb Code     0  startup_gd32f5xx_mbl.o(.text)
    EXTI5_9_IRQHandler                       0x080615fb   Thumb Code     0  startup_gd32f5xx_mbl.o(.text)
    FMC_IRQHandler                           0x080615fb   Thumb Code     0  startup_gd32f5xx_mbl.o(.text)
    FPU_IRQHandler                           0x080615fb   Thumb Code     0  startup_gd32f5xx_mbl.o(.text)
    HAU_IRQHandler                           0x080615fb   Thumb Code     0  startup_gd32f5xx_mbl.o(.text)
    I2C0_ER_IRQHandler                       0x080615fb   Thumb Code     0  startup_gd32f5xx_mbl.o(.text)
    I2C0_EV_IRQHandler                       0x080615fb   Thumb Code     0  startup_gd32f5xx_mbl.o(.text)
    I2C1_ER_IRQHandler                       0x080615fb   Thumb Code     0  startup_gd32f5xx_mbl.o(.text)
    I2C1_EV_IRQHandler                       0x080615fb   Thumb Code     0  startup_gd32f5xx_mbl.o(.text)
    I2C2_ER_IRQHandler                       0x080615fb   Thumb Code     0  startup_gd32f5xx_mbl.o(.text)
    I2C2_EV_IRQHandler                       0x080615fb   Thumb Code     0  startup_gd32f5xx_mbl.o(.text)
    I2C3_ER_IRQHandler                       0x080615fb   Thumb Code     0  startup_gd32f5xx_mbl.o(.text)
    I2C3_EV_IRQHandler                       0x080615fb   Thumb Code     0  startup_gd32f5xx_mbl.o(.text)
    I2C3_WKUP_IRQHandler                     0x080615fb   Thumb Code     0  startup_gd32f5xx_mbl.o(.text)
    I2C4_ER_IRQHandler                       0x080615fb   Thumb Code     0  startup_gd32f5xx_mbl.o(.text)
    I2C4_EV_IRQHandler                       0x080615fb   Thumb Code     0  startup_gd32f5xx_mbl.o(.text)
    I2C4_WKUP_IRQHandler                     0x080615fb   Thumb Code     0  startup_gd32f5xx_mbl.o(.text)
    I2C5_ER_IRQHandler                       0x080615fb   Thumb Code     0  startup_gd32f5xx_mbl.o(.text)
    I2C5_EV_IRQHandler                       0x080615fb   Thumb Code     0  startup_gd32f5xx_mbl.o(.text)
    I2C5_WKUP_IRQHandler                     0x080615fb   Thumb Code     0  startup_gd32f5xx_mbl.o(.text)
    IPA_IRQHandler                           0x080615fb   Thumb Code     0  startup_gd32f5xx_mbl.o(.text)
    LVD_IRQHandler                           0x080615fb   Thumb Code     0  startup_gd32f5xx_mbl.o(.text)
    PKCAU_IRQHandler                         0x080615fb   Thumb Code     0  startup_gd32f5xx_mbl.o(.text)
    RCU_CTC_IRQHandler                       0x080615fb   Thumb Code     0  startup_gd32f5xx_mbl.o(.text)
    RTC_Alarm_IRQHandler                     0x080615fb   Thumb Code     0  startup_gd32f5xx_mbl.o(.text)
    RTC_WKUP_IRQHandler                      0x080615fb   Thumb Code     0  startup_gd32f5xx_mbl.o(.text)
    SAI_IRQHandler                           0x080615fb   Thumb Code     0  startup_gd32f5xx_mbl.o(.text)
    SDIO_IRQHandler                          0x080615fb   Thumb Code     0  startup_gd32f5xx_mbl.o(.text)
    SPI0_IRQHandler                          0x080615fb   Thumb Code     0  startup_gd32f5xx_mbl.o(.text)
    SPI1_IRQHandler                          0x080615fb   Thumb Code     0  startup_gd32f5xx_mbl.o(.text)
    SPI2_IRQHandler                          0x080615fb   Thumb Code     0  startup_gd32f5xx_mbl.o(.text)
    SPI3_IRQHandler                          0x080615fb   Thumb Code     0  startup_gd32f5xx_mbl.o(.text)
    SPI4_IRQHandler                          0x080615fb   Thumb Code     0  startup_gd32f5xx_mbl.o(.text)
    SPI5_IRQHandler                          0x080615fb   Thumb Code     0  startup_gd32f5xx_mbl.o(.text)
    SYSCFG_SRAM_ECC_ER_IRQHandler            0x080615fb   Thumb Code     0  startup_gd32f5xx_mbl.o(.text)
    TAMPER_STAMP_IRQHandler                  0x080615fb   Thumb Code     0  startup_gd32f5xx_mbl.o(.text)
    TIMER0_BRK_TIMER8_IRQHandler             0x080615fb   Thumb Code     0  startup_gd32f5xx_mbl.o(.text)
    TIMER0_Channel_IRQHandler                0x080615fb   Thumb Code     0  startup_gd32f5xx_mbl.o(.text)
    TIMER0_TRG_CMT_TIMER10_IRQHandler        0x080615fb   Thumb Code     0  startup_gd32f5xx_mbl.o(.text)
    TIMER0_UP_TIMER9_IRQHandler              0x080615fb   Thumb Code     0  startup_gd32f5xx_mbl.o(.text)
    TIMER1_IRQHandler                        0x080615fb   Thumb Code     0  startup_gd32f5xx_mbl.o(.text)
    TIMER2_IRQHandler                        0x080615fb   Thumb Code     0  startup_gd32f5xx_mbl.o(.text)
    TIMER3_IRQHandler                        0x080615fb   Thumb Code     0  startup_gd32f5xx_mbl.o(.text)
    TIMER4_IRQHandler                        0x080615fb   Thumb Code     0  startup_gd32f5xx_mbl.o(.text)
    TIMER5_DAC_IRQHandler                    0x080615fb   Thumb Code     0  startup_gd32f5xx_mbl.o(.text)
    TIMER6_IRQHandler                        0x080615fb   Thumb Code     0  startup_gd32f5xx_mbl.o(.text)
    TIMER7_BRK_TIMER11_IRQHandler            0x080615fb   Thumb Code     0  startup_gd32f5xx_mbl.o(.text)
    TIMER7_Channel_IRQHandler                0x080615fb   Thumb Code     0  startup_gd32f5xx_mbl.o(.text)
    TIMER7_TRG_CMT_TIMER13_IRQHandler        0x080615fb   Thumb Code     0  startup_gd32f5xx_mbl.o(.text)
    TIMER7_UP_TIMER12_IRQHandler             0x080615fb   Thumb Code     0  startup_gd32f5xx_mbl.o(.text)
    TLI_ER_IRQHandler                        0x080615fb   Thumb Code     0  startup_gd32f5xx_mbl.o(.text)
    TLI_IRQHandler                           0x080615fb   Thumb Code     0  startup_gd32f5xx_mbl.o(.text)
    TRNG_IRQHandler                          0x080615fb   Thumb Code     0  startup_gd32f5xx_mbl.o(.text)
    UART3_IRQHandler                         0x080615fb   Thumb Code     0  startup_gd32f5xx_mbl.o(.text)
    UART4_IRQHandler                         0x080615fb   Thumb Code     0  startup_gd32f5xx_mbl.o(.text)
    UART7_IRQHandler                         0x080615fb   Thumb Code     0  startup_gd32f5xx_mbl.o(.text)
    USART0_IRQHandler                        0x080615fb   Thumb Code     0  startup_gd32f5xx_mbl.o(.text)
    USART1_IRQHandler                        0x080615fb   Thumb Code     0  startup_gd32f5xx_mbl.o(.text)
    USART2_IRQHandler                        0x080615fb   Thumb Code     0  startup_gd32f5xx_mbl.o(.text)
    USART5_IRQHandler                        0x080615fb   Thumb Code     0  startup_gd32f5xx_mbl.o(.text)
    USBFS_IRQHandler                         0x080615fb   Thumb Code     0  startup_gd32f5xx_mbl.o(.text)
    USBFS_WKUP_IRQHandler                    0x080615fb   Thumb Code     0  startup_gd32f5xx_mbl.o(.text)
    USBHS_EP1_In_IRQHandler                  0x080615fb   Thumb Code     0  startup_gd32f5xx_mbl.o(.text)
    USBHS_EP1_Out_IRQHandler                 0x080615fb   Thumb Code     0  startup_gd32f5xx_mbl.o(.text)
    USBHS_IRQHandler                         0x080615fb   Thumb Code     0  startup_gd32f5xx_mbl.o(.text)
    USBHS_WKUP_IRQHandler                    0x080615fb   Thumb Code     0  startup_gd32f5xx_mbl.o(.text)
    WWDGT_IRQHandler                         0x080615fb   Thumb Code     0  startup_gd32f5xx_mbl.o(.text)
    __aeabi_memcpy                           0x08061605   Thumb Code    36  memcpya.o(.text)
    __aeabi_memcpy4                          0x08061605   Thumb Code     0  memcpya.o(.text)
    __aeabi_memcpy8                          0x08061605   Thumb Code     0  memcpya.o(.text)
    __aeabi_memset                           0x08061629   Thumb Code    14  memseta.o(.text)
    __aeabi_memset4                          0x08061629   Thumb Code     0  memseta.o(.text)
    __aeabi_memset8                          0x08061629   Thumb Code     0  memseta.o(.text)
    __aeabi_memclr                           0x08061637   Thumb Code     4  memseta.o(.text)
    __aeabi_memclr4                          0x08061637   Thumb Code     0  memseta.o(.text)
    __aeabi_memclr8                          0x08061637   Thumb Code     0  memseta.o(.text)
    _memset$wrapper                          0x0806163b   Thumb Code    18  memseta.o(.text)
    memcmp                                   0x0806164d   Thumb Code    26  memcmp.o(.text)
    __scatterload                            0x08061669   Thumb Code    38  init.o(.text)
    __scatterload_rt2                        0x08061669   Thumb Code     0  init.o(.text)
    BusFault_Handler                         0x08061699   Thumb Code     4  mbl_gd32f5xx_it.o(.text.BusFault_Handler)
    DebugMon_Handler                         0x0806169d   Thumb Code     4  mbl_gd32f5xx_it.o(.text.DebugMon_Handler)
    HardFault_Handler                        0x080616a1   Thumb Code    20  mbl_gd32f5xx_it.o(.text.HardFault_Handler)
    HardFault_Handler_c                      0x080616b5   Thumb Code   356  mbl_gd32f5xx_it.o(.text.HardFault_Handler_c)
    MemManage_Handler                        0x08061819   Thumb Code     4  mbl_gd32f5xx_it.o(.text.MemManage_Handler)
    NMI_Handler                              0x0806181d   Thumb Code   266  mbl_gd32f5xx_it.o(.text.NMI_Handler)
    PendSV_Handler                           0x08061929   Thumb Code     4  mbl_gd32f5xx_it.o(.text.PendSV_Handler)
    SVC_Handler                              0x0806192d   Thumb Code     4  mbl_gd32f5xx_it.o(.text.SVC_Handler)
    SysTick_Handler                          0x08061985   Thumb Code     8  mbl_gd32f5xx_it.o(.text.SysTick_Handler)
    SystemInit                               0x0806198d   Thumb Code   250  system_gd32f5xx.o(.text.SystemInit)
    UART6_IRQHandler                         0x08061a89   Thumb Code   266  mbl_gd32f5xx_it.o(.text.UART6_IRQHandler)
    UsageFault_Handler                       0x08061b95   Thumb Code     4  mbl_gd32f5xx_it.o(.text.UsageFault_Handler)
    __aeabi_assert                           0x08061bfd   Thumb Code    54  boot_hal.o(.text.__aeabi_assert)
    boot_copy_region                         0x08061dad   Thumb Code   588  loader.o(.text.boot_copy_region)
    boot_enc_decrypt                         0x080620b9   Thumb Code   128  encrypted.o(.text.boot_enc_decrypt)
    boot_enc_drop                            0x08062139   Thumb Code    36  encrypted.o(.text.boot_enc_drop)
    boot_enc_init                            0x0806215d   Thumb Code    36  encrypted.o(.text.boot_enc_init)
    boot_enc_load                            0x080621a1   Thumb Code   234  encrypted.o(.text.boot_enc_load)
    boot_enc_set_key                         0x0806228d   Thumb Code   110  encrypted.o(.text.boot_enc_set_key)
    boot_enc_valid                           0x080622fd   Thumb Code    80  encrypted.o(.text.boot_enc_valid)
    boot_encrypt                             0x0806234d   Thumb Code   212  encrypted.o(.text.boot_encrypt)
    boot_erase_region                        0x08062421   Thumb Code    24  loader.o(.text.boot_erase_region)
    boot_fih_memequal                        0x08062439   Thumb Code    24  bootutil_misc.o(.text.boot_fih_memequal)
    boot_find_status                         0x08062451   Thumb Code   150  bootutil_misc.o(.text.boot_find_status)
    boot_go                                  0x0806250d   Thumb Code    78  loader.o(.text.boot_go)
    boot_magic_compatible_check              0x08062881   Thumb Code    78  bootutil_public.o(.text.boot_magic_compatible_check)
    boot_read_enc_key                        0x08062be1   Thumb Code    54  bootutil_misc.o(.text.boot_read_enc_key)
    boot_read_image_header                   0x08062c71   Thumb Code    82  swap_scratch.o(.text.boot_read_image_header)
    boot_read_image_ok                       0x08062d41   Thumb Code    34  bootutil_public.o(.text.boot_read_image_ok)
    boot_read_swap_size                      0x08062ec9   Thumb Code    36  bootutil_misc.o(.text.boot_read_swap_size)
    boot_read_swap_state                     0x08062eed   Thumb Code   226  bootutil_public.o(.text.boot_read_swap_state)
    boot_read_swap_state_by_id               0x08062fd1   Thumb Code    60  bootutil_public.o(.text.boot_read_swap_state_by_id)
    boot_slots_compatible                    0x0806303d   Thumb Code   544  swap_scratch.o(.text.boot_slots_compatible)
    boot_state_clear                         0x0806325d   Thumb Code    42  loader.o(.text.boot_state_clear)
    boot_status_entries                      0x08063289   Thumb Code    90  bootutil_misc.o(.text.boot_status_entries)
    boot_status_internal_off                 0x080632f5   Thumb Code    40  swap_scratch.o(.text.boot_status_internal_off)
    boot_status_is_reset                     0x0806331d   Thumb Code    58  loader.o(.text.boot_status_is_reset)
    boot_status_off                          0x08063359   Thumb Code   102  bootutil_misc.o(.text.boot_status_off)
    boot_status_reset                        0x080633c1   Thumb Code    62  loader.o(.text.boot_status_reset)
    boot_status_sz                           0x08063401   Thumb Code    18  bootutil_misc.o(.text.boot_status_sz)
    boot_swap_info_off                       0x08063791   Thumb Code    18  bootutil_public.o(.text.boot_swap_info_off)
    boot_swap_type_multi                     0x08063e39   Thumb Code   512  bootutil_public.o(.text.boot_swap_type_multi)
    boot_trailer_sz                          0x0806403d   Thumb Code    28  bootutil_misc.o(.text.boot_trailer_sz)
    boot_write_copy_done                     0x08064315   Thumb Code    92  bootutil_public.o(.text.boot_write_copy_done)
    boot_write_enc_key                       0x08064371   Thumb Code   136  bootutil_misc.o(.text.boot_write_enc_key)
    boot_write_image_ok                      0x080643f9   Thumb Code    92  bootutil_public.o(.text.boot_write_image_ok)
    boot_write_magic                         0x08064455   Thumb Code   194  bootutil_public.o(.text.boot_write_magic)
    boot_write_status                        0x08064519   Thumb Code   168  loader.o(.text.boot_write_status)
    boot_write_swap_info                     0x080645c1   Thumb Code   206  bootutil_public.o(.text.boot_write_swap_info)
    boot_write_swap_size                     0x08064691   Thumb Code    96  bootutil_misc.o(.text.boot_write_swap_size)
    boot_write_trailer                       0x08064721   Thumb Code   138  bootutil_public.o(.text.boot_write_trailer)
    boot_write_trailer_flag                  0x080647ad   Thumb Code    38  bootutil_public.o(.text.boot_write_trailer_flag)
    bootutil_buffer_is_erased                0x08064841   Thumb Code   110  bootutil_public.o(.text.bootutil_buffer_is_erased)
    bootutil_img_validate                    0x08064b39   Thumb Code   644  image_validate.o(.text.bootutil_img_validate)
    bootutil_max_image_size                  0x08064dbd   Thumb Code    16  bootutil_misc.o(.text.bootutil_max_image_size)
    bootutil_tlv_iter_begin                  0x08064fd1   Thumb Code   274  tlv.o(.text.bootutil_tlv_iter_begin)
    bootutil_tlv_iter_next                   0x080650e5   Thumb Code   258  tlv.o(.text.bootutil_tlv_iter_next)
    bootutil_verify_sig                      0x080651e9   Thumb Code   126  image_rsa.o(.text.bootutil_verify_sig)
    context_boot_go                          0x0806539d   Thumb Code   900  loader.o(.text.context_boot_go)
    delay_1ms                                0x08065721   Thumb Code    38  mbl_systick.o(.text.delay_1ms)
    delay_decrement                          0x08065749   Thumb Code    32  mbl_systick.o(.text.delay_decrement)
    flash_area_align                         0x08065819   Thumb Code    10  flash_map.o(.text.flash_area_align)
    flash_area_close                         0x08065825   Thumb Code     8  flash_map.o(.text.flash_area_close)
    flash_area_erase                         0x0806582d   Thumb Code    40  flash_map.o(.text.flash_area_erase)
    flash_area_erased_val                    0x08065855   Thumb Code    10  flash_map.o(.text.flash_area_erased_val)
    flash_area_get_sectors                   0x080658d9   Thumb Code   266  flash_map.o(.text.flash_area_get_sectors)
    flash_area_id_from_multi_image_slot      0x08065a15   Thumb Code    74  flash_map.o(.text.flash_area_id_from_multi_image_slot)
    flash_area_id_to_multi_image_slot        0x08065a61   Thumb Code    64  flash_map.o(.text.flash_area_id_to_multi_image_slot)
    flash_area_open                          0x08065aa1   Thumb Code   112  flash_map.o(.text.flash_area_open)
    flash_area_read                          0x08065b11   Thumb Code    44  flash_map.o(.text.flash_area_read)
    flash_area_write                         0x08065b3d   Thumb Code    44  flash_map.o(.text.flash_area_write)
    flash_device_base                        0x08065b69   Thumb Code    82  flash_map.o(.text.flash_device_base)
    main                                     0x08065c1d   Thumb Code   558  mbl.o(.text.main)
    mbl_get_rotpk                            0x08065e4d   Thumb Code    34  keys.o(.text.mbl_get_rotpk)
    swap_erase_trailer_sectors               0x08065e71   Thumb Code   266  swap_misc.o(.text.swap_erase_trailer_sectors)
    swap_read_status                         0x08065f7d   Thumb Code   224  swap_misc.o(.text.swap_read_status)
    swap_read_status_bytes                   0x0806605d   Thumb Code   296  swap_scratch.o(.text.swap_read_status_bytes)
    swap_run                                 0x08066185   Thumb Code   248  swap_scratch.o(.text.swap_run)
    swap_set_copy_done                       0x0806627d   Thumb Code    64  swap_misc.o(.text.swap_set_copy_done)
    swap_set_image_ok                        0x080662bd   Thumb Code   102  swap_misc.o(.text.swap_set_image_ok)
    swap_status_init                         0x08066325   Thumb Code   384  swap_misc.o(.text.swap_status_init)
    swap_status_source                       0x080664a5   Thumb Code   612  swap_scratch.o(.text.swap_status_source)
    syscfg_interrupt_flag_get                0x08066709   Thumb Code    40  gd32f5xx_syscfg.o(.text.syscfg_interrupt_flag_get)
    systick_config                           0x08066899   Thumb Code    50  mbl_systick.o(.text.systick_config)
    usart_data_receive                       0x080668cd   Thumb Code    16  gd32f5xx_usart.o(.text.usart_data_receive)
    usart_interrupt_disable                  0x080668dd   Thumb Code    34  gd32f5xx_usart.o(.text.usart_interrupt_disable)
    usart_interrupt_enable                   0x08066901   Thumb Code    34  gd32f5xx_usart.o(.text.usart_interrupt_enable)
    usart_interrupt_flag_get                 0x08066925   Thumb Code    88  gd32f5xx_usart.o(.text.usart_interrupt_flag_get)
    ymodem_packet_init                       0x0806697d   Thumb Code   120  mbl.o(.text.ymodem_packet_init)
    __scatterload_copy                       0x080669f5   Thumb Code    14  handlers.o(i.__scatterload_copy)
    __scatterload_null                       0x08066a03   Thumb Code     2  handlers.o(i.__scatterload_null)
    __scatterload_zeroinit                   0x08066a05   Thumb Code    14  handlers.o(i.__scatterload_zeroinit)
    boot_img_magic                           0x08066a12   Data          16  bootutil_public.o(.rodata.boot_img_magic)
    bootutil_enc_key                         0x08066a44   Data           8  keys.o(.rodata.bootutil_enc_key)
    bootutil_key_cnt                         0x08066a4c   Data           4  keys.o(.rodata.bootutil_key_cnt)
    Region$$Table$$Base                      0x08067620   Number         0  anon$$obj.o(Region$$Table)
    Region$$Table$$Limit                     0x08067650   Number         0  anon$$obj.o(Region$$Table)
    FIH_BOOT_HOOK_REGULAR                    0x20001a00   Data           4  fault_injection_hardening.o(.data.FIH_BOOT_HOOK_REGULAR)
    FIH_FAILURE                              0x20001a04   Data           4  fault_injection_hardening.o(.data.FIH_FAILURE)
    FIH_NO_BOOTABLE_IMAGE                    0x20001a08   Data           4  fault_injection_hardening.o(.data.FIH_NO_BOOTABLE_IMAGE)
    SystemCoreClock                          0x20001a0c   Data           4  system_gd32f5xx.o(.data.SystemCoreClock)
    bootutil_keys                            0x20001a10   Data           8  keys.o(.data.bootutil_keys)
    enc_priv_key                             0x20001a18   Data        1191  keys.o(.data.enc_priv_key)
    p_ibl_api                                0x20001ec4   Data           4  mbl.o(.data.p_ibl_api)
    FIH_SUCCESS                              0x20001ec8   Data           4  fault_injection_hardening.o(.bss.FIH_SUCCESS)
    boot_status_fails                        0x2000248c   Data           4  swap_scratch.o(.bss.boot_status_fails)
    rsa_pub_key_len                          0x20005498   Data           4  keys.o(.bss.rsa_pub_key_len)
    ymodem_packet                            0x2000549c   Data        1092  mbl.o(.bss.ymodem_packet)
    Image$$MBL_BUF$$ZI$$Base                 0x200058e0   Number         0  anon$$obj.o ABSOLUTE
    Image$$ARM_LIB_STACKHEAP$$ZI$$Base       0x200088e0   Number         0  anon$$obj.o ABSOLUTE
    Image$$ARM_LIB_STACKHEAP$$ZI$$Limit      0x2000c8e0   Number         0  anon$$obj.o ABSOLUTE



==============================================================================

Memory Map of the image

  Image Entry point : 0x080615e1

  Load Region LR_CODE_1 (Base: 0x08061200, Size: 0x00006920, Max: 0x00006e40, ABSOLUTE)

    Execution Region MBL_CODE (Exec base: 0x08061200, Load base: 0x08061200, Size: 0x00006450, Max: 0xffffffff, ABSOLUTE)

    Exec Addr    Load Addr    Size         Type   Attr      Idx    E Section Name        Object

    0x08061200   0x08061200   0x000003cc   Data   RO          539    RESET               startup_gd32f5xx_mbl.o
    0x080615cc   0x080615cc   0x00000000   Code   RO         1025  * .ARM.Collect$$$$00000000  mc_w.l(entry.o)
    0x080615cc   0x080615cc   0x00000004   Code   RO         1064    .ARM.Collect$$$$00000002  mc_w.l(entry3.o)
    0x080615d0   0x080615d0   0x00000004   Code   RO         1067    .ARM.Collect$$$$00000004  mc_w.l(entry5.o)
    0x080615d4   0x080615d4   0x00000000   Code   RO         1069    .ARM.Collect$$$$00000008  mc_w.l(entry7b.o)
    0x080615d4   0x080615d4   0x00000000   Code   RO         1071    .ARM.Collect$$$$0000000A  mc_w.l(entry8b.o)
    0x080615d4   0x080615d4   0x00000008   Code   RO         1072    .ARM.Collect$$$$0000000B  mc_w.l(entry9a.o)
    0x080615dc   0x080615dc   0x00000000   Code   RO         1074    .ARM.Collect$$$$0000000D  mc_w.l(entry10a.o)
    0x080615dc   0x080615dc   0x00000000   Code   RO         1076    .ARM.Collect$$$$0000000F  mc_w.l(entry11a.o)
    0x080615dc   0x080615dc   0x00000004   Code   RO         1065    .ARM.Collect$$$$00002713  mc_w.l(entry3.o)
    0x080615e0   0x080615e0   0x00000024   Code   RO          540  * .text               startup_gd32f5xx_mbl.o
    0x08061604   0x08061604   0x00000024   Code   RO         1028    .text               mc_w.l(memcpya.o)
    0x08061628   0x08061628   0x00000024   Code   RO         1030    .text               mc_w.l(memseta.o)
    0x0806164c   0x0806164c   0x0000001a   Code   RO         1032    .text               mc_w.l(memcmp.o)
    0x08061666   0x08061666   0x00000002   PAD
    0x08061668   0x08061668   0x00000030   Code   RO         1080    .text               mc_w.l(init.o)
    0x08061698   0x08061698   0x00000004   Code   RO           33    .text.BusFault_Handler  mbl_gd32f5xx_it.o
    0x0806169c   0x0806169c   0x00000004   Code   RO           39    .text.DebugMon_Handler  mbl_gd32f5xx_it.o
    0x080616a0   0x080616a0   0x00000014   Code   RO           29    .text.HardFault_Handler  mbl_gd32f5xx_it.o
    0x080616b4   0x080616b4   0x00000164   Code   RO           27    .text.HardFault_Handler_c  mbl_gd32f5xx_it.o
    0x08061818   0x08061818   0x00000004   Code   RO           31    .text.MemManage_Handler  mbl_gd32f5xx_it.o
    0x0806181c   0x0806181c   0x0000010a   Code   RO           25    .text.NMI_Handler   mbl_gd32f5xx_it.o
    0x08061926   0x08061926   0x00000002   PAD
    0x08061928   0x08061928   0x00000004   Code   RO           41    .text.PendSV_Handler  mbl_gd32f5xx_it.o
    0x0806192c   0x0806192c   0x00000004   Code   RO           37    .text.SVC_Handler   mbl_gd32f5xx_it.o
    0x08061930   0x08061930   0x00000052   Code   RO           58    .text.SysTick_Config  mbl_systick.o
    0x08061982   0x08061982   0x00000002   PAD
    0x08061984   0x08061984   0x00000008   Code   RO           43    .text.SysTick_Handler  mbl_gd32f5xx_it.o
    0x0806198c   0x0806198c   0x000000fa   Code   RO          547    .text.SystemInit    system_gd32f5xx.o
    0x08061a86   0x08061a86   0x00000002   PAD
    0x08061a88   0x08061a88   0x0000010a   Code   RO           45    .text.UART6_IRQHandler  mbl_gd32f5xx_it.o
    0x08061b92   0x08061b92   0x00000002   PAD
    0x08061b94   0x08061b94   0x00000004   Code   RO           35    .text.UsageFault_Handler  mbl_gd32f5xx_it.o
    0x08061b98   0x08061b98   0x0000003a   Code   RO           60    .text.__NVIC_SetPriority  mbl_systick.o
    0x08061bd2   0x08061bd2   0x00000002   PAD
    0x08061bd4   0x08061bd4   0x00000026   Code   RO            8    .text.__NVIC_SystemReset  mbl.o
    0x08061bfa   0x08061bfa   0x00000002   PAD
    0x08061bfc   0x08061bfc   0x00000036   Code   RO           74    .text.__aeabi_assert  boot_hal.o
    0x08061c32   0x08061c32   0x00000002   PAD
    0x08061c34   0x08061c34   0x0000000e   Code   RO          389    .text.boot_add_shared_data  loader.o
    0x08061c42   0x08061c42   0x00000002   PAD
    0x08061c44   0x08061c44   0x0000006a   Code   RO          423    .text.boot_check_header_erased  loader.o
    0x08061cae   0x08061cae   0x00000002   PAD
    0x08061cb0   0x08061cb0   0x000000e8   Code   RO          411    .text.boot_complete_partial_swap  loader.o
    0x08061d98   0x08061d98   0x00000012   Code   RO          185    .text.boot_copy_done_off  bootutil_public.o
    0x08061daa   0x08061daa   0x00000002   PAD
    0x08061dac   0x08061dac   0x0000024c   Code   RO          369    .text.boot_copy_region  loader.o
    0x08061ff8   0x08061ff8   0x00000062   Code   RO          505    .text.boot_copy_sz  swap_scratch.o
    0x0806205a   0x0806205a   0x00000002   PAD
    0x0806205c   0x0806205c   0x0000005a   Code   RO          429    .text.boot_data_is_set_to  loader.o
    0x080620b6   0x080620b6   0x00000002   PAD
    0x080620b8   0x080620b8   0x00000080   Code   RO          286    .text.boot_enc_decrypt  encrypted.o
    0x08062138   0x08062138   0x00000024   Code   RO          278    .text.boot_enc_drop  encrypted.o
    0x0806215c   0x0806215c   0x00000024   Code   RO          274    .text.boot_enc_init  encrypted.o
    0x08062180   0x08062180   0x0000001e   Code   RO          164    .text.boot_enc_key_off  bootutil_misc.o
    0x0806219e   0x0806219e   0x00000002   PAD
    0x080621a0   0x080621a0   0x000000ea   Code   RO          296    .text.boot_enc_load  encrypted.o
    0x0806228a   0x0806228a   0x00000002   PAD
    0x0806228c   0x0806228c   0x0000006e   Code   RO          282    .text.boot_enc_set_key  encrypted.o
    0x080622fa   0x080622fa   0x00000002   PAD
    0x080622fc   0x080622fc   0x00000050   Code   RO          300    .text.boot_enc_valid  encrypted.o
    0x0806234c   0x0806234c   0x000000d4   Code   RO          302    .text.boot_encrypt  encrypted.o
    0x08062420   0x08062420   0x00000018   Code   RO          367    .text.boot_erase_region  loader.o
    0x08062438   0x08062438   0x00000018   Code   RO          132    .text.boot_fih_memequal  bootutil_misc.o
    0x08062450   0x08062450   0x00000096   Code   RO          152    .text.boot_find_status  bootutil_misc.o
    0x080624e6   0x080624e6   0x00000002   PAD
    0x080624e8   0x080624e8   0x00000022   Code   RO          251    .text.boot_flag_decode  bootutil_public.o
    0x0806250a   0x0806250a   0x00000002   PAD
    0x0806250c   0x0806250c   0x0000004e   Code   RO          405    .text.boot_go       loader.o
    0x0806255a   0x0806255a   0x00000002   PAD
    0x0806255c   0x0806255c   0x000000f8   Code   RO          425    .text.boot_image_check  loader.o
    0x08062654   0x08062654   0x00000016   Code   RO          215    .text.boot_image_ok_off  bootutil_public.o
    0x0806266a   0x0806266a   0x00000002   PAD
    0x0806266c   0x0806266c   0x00000014   Code   RO          373    .text.boot_img_hdr  loader.o
    0x08062680   0x08062680   0x00000016   Code   RO          460    .text.boot_img_num_sectors  swap_misc.o
    0x08062696   0x08062696   0x00000002   PAD
    0x08062698   0x08062698   0x00000016   Code   RO          495    .text.boot_img_num_sectors  swap_scratch.o
    0x080626ae   0x080626ae   0x00000002   PAD
    0x080626b0   0x080626b0   0x0000003e   Code   RO          464    .text.boot_img_sector_off  swap_misc.o
    0x080626ee   0x080626ee   0x00000002   PAD
    0x080626f0   0x080626f0   0x0000003e   Code   RO          515    .text.boot_img_sector_off  swap_scratch.o
    0x0806272e   0x0806272e   0x00000002   PAD
    0x08062730   0x08062730   0x00000024   Code   RO          462    .text.boot_img_sector_size  swap_misc.o
    0x08062754   0x08062754   0x00000024   Code   RO          499    .text.boot_img_sector_size  swap_scratch.o
    0x08062778   0x08062778   0x0000001c   Code   RO          403    .text.boot_img_slot_off  loader.o
    0x08062794   0x08062794   0x00000084   Code   RO          435    .text.boot_initialize_area  loader.o
    0x08062818   0x08062818   0x00000066   Code   RO          427    .text.boot_is_header_valid  loader.o
    0x0806287e   0x0806287e   0x00000002   PAD
    0x08062880   0x08062880   0x0000004e   Code   RO          187    .text.boot_magic_compatible_check  bootutil_public.o
    0x080628ce   0x080628ce   0x00000002   PAD
    0x080628d0   0x080628d0   0x0000002c   Code   RO          156    .text.boot_magic_decode  bootutil_misc.o
    0x080628fc   0x080628fc   0x0000002c   Code   RO          195    .text.boot_magic_decode  bootutil_public.o
    0x08062928   0x08062928   0x00000012   Code   RO          154    .text.boot_magic_off  bootutil_misc.o
    0x0806293a   0x0806293a   0x00000002   PAD
    0x0806293c   0x0806293c   0x00000012   Code   RO          193    .text.boot_magic_off  bootutil_public.o
    0x0806294e   0x0806294e   0x00000002   PAD
    0x08062950   0x08062950   0x000000ac   Code   RO          381    .text.boot_perform_update  loader.o
    0x080629fc   0x080629fc   0x000001c0   Code   RO          377    .text.boot_prepare_image_for_update  loader.o
    0x08062bbc   0x08062bbc   0x00000022   Code   RO          197    .text.boot_read_copy_done  bootutil_public.o
    0x08062bde   0x08062bde   0x00000002   PAD
    0x08062be0   0x08062be0   0x00000036   Code   RO          162    .text.boot_read_enc_key  bootutil_misc.o
    0x08062c16   0x08062c16   0x00000002   PAD
    0x08062c18   0x08062c18   0x00000058   Code   RO          223    .text.boot_read_flag  bootutil_public.o
    0x08062c70   0x08062c70   0x00000052   Code   RO          487    .text.boot_read_image_header  swap_scratch.o
    0x08062cc2   0x08062cc2   0x00000002   PAD
    0x08062cc4   0x08062cc4   0x0000007c   Code   RO          383    .text.boot_read_image_headers  loader.o
    0x08062d40   0x08062d40   0x00000022   Code   RO          199    .text.boot_read_image_ok  bootutil_public.o
    0x08062d62   0x08062d62   0x00000002   PAD
    0x08062d64   0x08062d64   0x000000ee   Code   RO          417    .text.boot_read_image_size  loader.o
    0x08062e52   0x08062e52   0x00000002   PAD
    0x08062e54   0x08062e54   0x00000074   Code   RO          399    .text.boot_read_sectors  loader.o
    0x08062ec8   0x08062ec8   0x00000024   Code   RO          158    .text.boot_read_swap_size  bootutil_misc.o
    0x08062eec   0x08062eec   0x000000e2   Code   RO          191    .text.boot_read_swap_state  bootutil_public.o
    0x08062fce   0x08062fce   0x00000002   PAD
    0x08062fd0   0x08062fd0   0x0000003c   Code   RO          201    .text.boot_read_swap_state_by_id  bootutil_public.o
    0x0806300c   0x0806300c   0x00000012   Code   RO          497    .text.boot_scratch_area_size  swap_scratch.o
    0x0806301e   0x0806301e   0x00000002   PAD
    0x08063020   0x08063020   0x0000001c   Code   RO          148    .text.boot_scratch_trailer_sz  bootutil_misc.o
    0x0806303c   0x0806303c   0x00000220   Code   RO          493    .text.boot_slots_compatible  swap_scratch.o
    0x0806325c   0x0806325c   0x0000002a   Code   RO          407    .text.boot_state_clear  loader.o
    0x08063286   0x08063286   0x00000002   PAD
    0x08063288   0x08063288   0x0000005a   Code   RO          142    .text.boot_status_entries  bootutil_misc.o
    0x080632e2   0x080632e2   0x00000002   PAD
    0x080632e4   0x080632e4   0x0000000e   Code   RO          136    .text.boot_status_entry_sz  bootutil_misc.o
    0x080632f2   0x080632f2   0x00000002   PAD
    0x080632f4   0x080632f4   0x00000028   Code   RO          491    .text.boot_status_internal_off  swap_scratch.o
    0x0806331c   0x0806331c   0x0000003a   Code   RO          363    .text.boot_status_is_reset  loader.o
    0x08063356   0x08063356   0x00000002   PAD
    0x08063358   0x08063358   0x00000066   Code   RO          146    .text.boot_status_off  bootutil_misc.o
    0x080633be   0x080633be   0x00000002   PAD
    0x080633c0   0x080633c0   0x0000003e   Code   RO          361    .text.boot_status_reset  loader.o
    0x080633fe   0x080633fe   0x00000002   PAD
    0x08063400   0x08063400   0x00000012   Code   RO          134    .text.boot_status_sz  bootutil_misc.o
    0x08063412   0x08063412   0x00000002   PAD
    0x08063414   0x08063414   0x0000037c   Code   RO          415    .text.boot_swap_image  loader.o
    0x08063790   0x08063790   0x00000012   Code   RO          183    .text.boot_swap_info_off  bootutil_public.o
    0x080637a2   0x080637a2   0x00000002   PAD
    0x080637a4   0x080637a4   0x0000067e   Code   RO          507    .text.boot_swap_sectors  swap_scratch.o
    0x08063e22   0x08063e22   0x00000002   PAD
    0x08063e24   0x08063e24   0x00000012   Code   RO          160    .text.boot_swap_size_off  bootutil_misc.o
    0x08063e36   0x08063e36   0x00000002   PAD
    0x08063e38   0x08063e38   0x00000200   Code   RO          227    .text.boot_swap_type_multi  bootutil_public.o
    0x08064038   0x08064038   0x00000004   Code   RO          140    .text.boot_trailer_info_sz  bootutil_misc.o
    0x0806403c   0x0806403c   0x0000001c   Code   RO          138    .text.boot_trailer_sz  bootutil_misc.o
    0x08064058   0x08064058   0x00000036   Code   RO          431    .text.boot_u32_safe_add  loader.o
    0x0806408e   0x0806408e   0x00000002   PAD
    0x08064090   0x08064090   0x0000000a   Code   RO          387    .text.boot_update_hw_rollback_protection  loader.o
    0x0806409a   0x0806409a   0x00000002   PAD
    0x0806409c   0x0806409c   0x00000154   Code   RO          385    .text.boot_validate_slot  loader.o
    0x080641f0   0x080641f0   0x00000092   Code   RO          413    .text.boot_validated_swap_type  loader.o
    0x08064282   0x08064282   0x00000002   PAD
    0x08064284   0x08064284   0x00000090   Code   RO          419    .text.boot_version_cmp  loader.o
    0x08064314   0x08064314   0x0000005c   Code   RO          229    .text.boot_write_copy_done  bootutil_public.o
    0x08064370   0x08064370   0x00000088   Code   RO          170    .text.boot_write_enc_key  bootutil_misc.o
    0x080643f8   0x080643f8   0x0000005c   Code   RO          213    .text.boot_write_image_ok  bootutil_public.o
    0x08064454   0x08064454   0x000000c2   Code   RO          203    .text.boot_write_magic  bootutil_public.o
    0x08064516   0x08064516   0x00000002   PAD
    0x08064518   0x08064518   0x000000a8   Code   RO          365    .text.boot_write_status  loader.o
    0x080645c0   0x080645c0   0x000000ce   Code   RO          225    .text.boot_write_swap_info  bootutil_public.o
    0x0806468e   0x0806468e   0x00000002   PAD
    0x08064690   0x08064690   0x00000060   Code   RO          166    .text.boot_write_swap_size  bootutil_misc.o
    0x080646f0   0x080646f0   0x00000030   Code   RO          437    .text.boot_write_sz  loader.o
    0x08064720   0x08064720   0x0000008a   Code   RO          209    .text.boot_write_trailer  bootutil_public.o
    0x080647aa   0x080647aa   0x00000002   PAD
    0x080647ac   0x080647ac   0x00000026   Code   RO          211    .text.boot_write_trailer_flag  bootutil_public.o
    0x080647d2   0x080647d2   0x00000002   PAD
    0x080647d4   0x080647d4   0x00000008   Code   RO          280    .text.bootutil_aes_ctr_drop  encrypted.o
    0x080647dc   0x080647dc   0x0000003a   Code   RO          304    .text.bootutil_aes_ctr_encrypt  encrypted.o
    0x08064816   0x08064816   0x00000002   PAD
    0x08064818   0x08064818   0x00000010   Code   RO          276    .text.bootutil_aes_ctr_init  encrypted.o
    0x08064828   0x08064828   0x00000016   Code   RO          284    .text.bootutil_aes_ctr_set_key  encrypted.o
    0x0806483e   0x0806483e   0x00000002   PAD
    0x08064840   0x08064840   0x0000006e   Code   RO          189    .text.bootutil_buffer_is_erased  bootutil_public.o
    0x080648ae   0x080648ae   0x00000002   PAD
    0x080648b0   0x080648b0   0x0000009e   Code   RO          342    .text.bootutil_find_key  image_validate.o
    0x0806494e   0x0806494e   0x00000002   PAD
    0x08064950   0x08064950   0x000001e8   Code   RO          340    .text.bootutil_img_hash  image_validate.o
    0x08064b38   0x08064b38   0x00000284   Code   RO          338    .text.bootutil_img_validate  image_validate.o
    0x08064dbc   0x08064dbc   0x00000010   Code   RO          172    .text.bootutil_max_image_size  bootutil_misc.o
    0x08064dcc   0x08064dcc   0x00000010   Code   RO          292    .text.bootutil_rsa_drop  encrypted.o
    0x08064ddc   0x08064ddc   0x00000014   Code   RO          288    .text.bootutil_rsa_init  encrypted.o
    0x08064df0   0x08064df0   0x00000048   Code   RO          294    .text.bootutil_rsa_oaep_decrypt  encrypted.o
    0x08064e38   0x08064e38   0x00000148   Code   RO          290    .text.bootutil_rsa_parse_private_key  encrypted.o
    0x08064f80   0x08064f80   0x0000000a   Code   RO          350    .text.bootutil_sha_drop  image_validate.o
    0x08064f8a   0x08064f8a   0x00000002   PAD
    0x08064f8c   0x08064f8c   0x00000014   Code   RO          352    .text.bootutil_sha_finish  image_validate.o
    0x08064fa0   0x08064fa0   0x00000018   Code   RO          346    .text.bootutil_sha_init  image_validate.o
    0x08064fb8   0x08064fb8   0x00000018   Code   RO          348    .text.bootutil_sha_update  image_validate.o
    0x08064fd0   0x08064fd0   0x00000112   Code   RO          529    .text.bootutil_tlv_iter_begin  tlv.o
    0x080650e2   0x080650e2   0x00000002   PAD
    0x080650e4   0x080650e4   0x00000102   Code   RO          531    .text.bootutil_tlv_iter_next  tlv.o
    0x080651e6   0x080651e6   0x00000002   PAD
    0x080651e8   0x080651e8   0x0000007e   Code   RO          328    .text.bootutil_verify_sig  image_rsa.o
    0x08065266   0x08065266   0x00000002   PAD
    0x08065268   0x08065268   0x000000f2   Code   RO          379    .text.check_downgrade_prevention  loader.o
    0x0806535a   0x0806535a   0x00000002   PAD
    0x0806535c   0x0806535c   0x0000003e   Code   RO          395    .text.close_all_flash_areas  loader.o
    0x0806539a   0x0806539a   0x00000002   PAD
    0x0806539c   0x0806539c   0x00000384   Code   RO          375    .text.context_boot_go  loader.o
    0x08065720   0x08065720   0x00000026   Code   RO           62    .text.delay_1ms     mbl_systick.o
    0x08065746   0x08065746   0x00000002   PAD
    0x08065748   0x08065748   0x00000020   Code   RO           64    .text.delay_decrement  mbl_systick.o
    0x08065768   0x08065768   0x00000072   Code   RO           10    .text.do_boot       mbl.o
    0x080657da   0x080657da   0x00000002   PAD
    0x080657dc   0x080657dc   0x0000003c   Code   RO          391    .text.fill_rsp      loader.o
    0x08065818   0x08065818   0x0000000a   Code   RO           95    .text.flash_area_align  flash_map.o
    0x08065822   0x08065822   0x00000002   PAD
    0x08065824   0x08065824   0x00000008   Code   RO           87    .text.flash_area_close  flash_map.o
    0x0806582c   0x0806582c   0x00000028   Code   RO           93    .text.flash_area_erase  flash_map.o
    0x08065854   0x08065854   0x0000000a   Code   RO           97    .text.flash_area_erased_val  flash_map.o
    0x0806585e   0x0806585e   0x00000002   PAD
    0x08065860   0x08065860   0x0000000c   Code   RO          433    .text.flash_area_get_device_id  loader.o
    0x0806586c   0x0806586c   0x0000000c   Code   RO          144    .text.flash_area_get_id  bootutil_misc.o
    0x08065878   0x08065878   0x0000000c   Code   RO          205    .text.flash_area_get_id  bootutil_public.o
    0x08065884   0x08065884   0x0000000c   Code   RO          298    .text.flash_area_get_id  encrypted.o
    0x08065890   0x08065890   0x0000000c   Code   RO          344    .text.flash_area_get_id  image_validate.o
    0x0806589c   0x0806589c   0x0000000c   Code   RO          371    .text.flash_area_get_id  loader.o
    0x080658a8   0x080658a8   0x0000000c   Code   RO          458    .text.flash_area_get_id  swap_misc.o
    0x080658b4   0x080658b4   0x0000000c   Code   RO          168    .text.flash_area_get_off  bootutil_misc.o
    0x080658c0   0x080658c0   0x0000000c   Code   RO          207    .text.flash_area_get_off  bootutil_public.o
    0x080658cc   0x080658cc   0x0000000c   Code   RO          439    .text.flash_area_get_off  loader.o
    0x080658d8   0x080658d8   0x0000010a   Code   RO          105    .text.flash_area_get_sectors  flash_map.o
    0x080659e2   0x080659e2   0x00000002   PAD
    0x080659e4   0x080659e4   0x0000000c   Code   RO          150    .text.flash_area_get_size  bootutil_misc.o
    0x080659f0   0x080659f0   0x0000000c   Code   RO          235    .text.flash_area_get_size  bootutil_public.o
    0x080659fc   0x080659fc   0x0000000c   Code   RO          421    .text.flash_area_get_size  loader.o
    0x08065a08   0x08065a08   0x0000000c   Code   RO          511    .text.flash_area_get_size  swap_scratch.o
    0x08065a14   0x08065a14   0x0000004a   Code   RO          103    .text.flash_area_id_from_multi_image_slot  flash_map.o
    0x08065a5e   0x08065a5e   0x00000002   PAD
    0x08065a60   0x08065a60   0x00000040   Code   RO           99    .text.flash_area_id_to_multi_image_slot  flash_map.o
    0x08065aa0   0x08065aa0   0x00000070   Code   RO           85    .text.flash_area_open  flash_map.o
    0x08065b10   0x08065b10   0x0000002c   Code   RO           89    .text.flash_area_read  flash_map.o
    0x08065b3c   0x08065b3c   0x0000002c   Code   RO           91    .text.flash_area_write  flash_map.o
    0x08065b68   0x08065b68   0x00000052   Code   RO           83    .text.flash_device_base  flash_map.o
    0x08065bba   0x08065bba   0x00000002   PAD
    0x08065bbc   0x08065bbc   0x0000000c   Code   RO          476    .text.flash_sector_get_off  swap_misc.o
    0x08065bc8   0x08065bc8   0x0000000c   Code   RO          517    .text.flash_sector_get_off  swap_scratch.o
    0x08065bd4   0x08065bd4   0x0000000c   Code   RO          474    .text.flash_sector_get_size  swap_misc.o
    0x08065be0   0x08065be0   0x0000000c   Code   RO          513    .text.flash_sector_get_size  swap_scratch.o
    0x08065bec   0x08065bec   0x00000030   Code   RO          393    .text.like_mbedtls_zeroize  loader.o
    0x08065c1c   0x08065c1c   0x0000022e   Code   RO            6    .text.main          mbl.o
    0x08065e4a   0x08065e4a   0x00000002   PAD
    0x08065e4c   0x08065e4c   0x00000022   Code   RO          116    .text.mbl_get_rotpk  keys.o
    0x08065e6e   0x08065e6e   0x00000002   PAD
    0x08065e70   0x08065e70   0x0000010a   Code   RO          456    .text.swap_erase_trailer_sectors  swap_misc.o
    0x08065f7a   0x08065f7a   0x00000002   PAD
    0x08065f7c   0x08065f7c   0x000000e0   Code   RO          468    .text.swap_read_status  swap_misc.o
    0x0806605c   0x0806605c   0x00000128   Code   RO          489    .text.swap_read_status_bytes  swap_scratch.o
    0x08066184   0x08066184   0x000000f8   Code   RO          503    .text.swap_run      swap_scratch.o
    0x0806627c   0x0806627c   0x00000040   Code   RO          470    .text.swap_set_copy_done  swap_misc.o
    0x080662bc   0x080662bc   0x00000066   Code   RO          472    .text.swap_set_image_ok  swap_misc.o
    0x08066322   0x08066322   0x00000002   PAD
    0x08066324   0x08066324   0x00000180   Code   RO          466    .text.swap_status_init  swap_misc.o
    0x080664a4   0x080664a4   0x00000264   Code   RO          501    .text.swap_status_source  swap_scratch.o
    0x08066708   0x08066708   0x00000028   Code   RO         1015    .text.syscfg_interrupt_flag_get  gd32f5xx_syscfg.o
    0x08066730   0x08066730   0x0000015e   Code   RO          553    .text.system_clock_200m_25m_hxtal  system_gd32f5xx.o
    0x0806688e   0x0806688e   0x00000002   PAD
    0x08066890   0x08066890   0x00000008   Code   RO          549    .text.system_clock_config  system_gd32f5xx.o
    0x08066898   0x08066898   0x00000032   Code   RO           56    .text.systick_config  mbl_systick.o
    0x080668ca   0x080668ca   0x00000002   PAD
    0x080668cc   0x080668cc   0x00000010   Code   RO          736    .text.usart_data_receive  gd32f5xx_usart.o
    0x080668dc   0x080668dc   0x00000022   Code   RO          806    .text.usart_interrupt_disable  gd32f5xx_usart.o
    0x080668fe   0x080668fe   0x00000002   PAD
    0x08066900   0x08066900   0x00000022   Code   RO          804    .text.usart_interrupt_enable  gd32f5xx_usart.o
    0x08066922   0x08066922   0x00000002   PAD
    0x08066924   0x08066924   0x00000058   Code   RO          808    .text.usart_interrupt_flag_get  gd32f5xx_usart.o
    0x0806697c   0x0806697c   0x00000078   Code   RO            4    .text.ymodem_packet_init  mbl.o
    0x080669f4   0x080669f4   0x0000000e   Code   RO         1084    i.__scatterload_copy  mc_w.l(handlers.o)
    0x08066a02   0x08066a02   0x00000002   Code   RO         1085    i.__scatterload_null  mc_w.l(handlers.o)
    0x08066a04   0x08066a04   0x0000000e   Code   RO         1086    i.__scatterload_zeroinit  mc_w.l(handlers.o)
    0x08066a12   0x08066a12   0x00000010   Data   RO          253    .rodata.boot_img_magic  bootutil_public.o
    0x08066a22   0x08066a22   0x00000010   Data   RO          521    .rodata.boot_status_tables  swap_scratch.o
    0x08066a32   0x08066a32   0x00000012   Data   RO          255    .rodata.boot_swap_tables  bootutil_public.o
    0x08066a44   0x08066a44   0x00000008   Data   RO          124    .rodata.bootutil_enc_key  keys.o
    0x08066a4c   0x08066a4c   0x00000004   Data   RO          121    .rodata.bootutil_key_cnt  keys.o
    0x08066a50   0x08066a50   0x00000024   Data   RO          108    .rodata.flash_map   flash_map.o
    0x08066a74   0x08066a74   0x000000c8   Data   RO           14    .rodata.str1.1      mbl.o
    0x08066b3c   0x08066b3c   0x00000171   Data   RO           47    .rodata.str1.1      mbl_gd32f5xx_it.o
    0x08066cad   0x08066cad   0x00000027   Data   RO           76    .rodata.str1.1      boot_hal.o
    0x08066cd4   0x08066cd4   0x00000023   Data   RO          107    .rodata.str1.1      flash_map.o
    0x08066cf7   0x08066cf7   0x000000d8   Data   RO          174    .rodata.str1.1      bootutil_misc.o
    0x08066dcf   0x08066dcf   0x000002e8   Data   RO          254    .rodata.str1.1      bootutil_public.o
    0x080670b7   0x080670b7   0x0000005d   Data   RO          308    .rodata.str1.1      encrypted.o
    0x08067114   0x08067114   0x0000026e   Data   RO          445    .rodata.str1.1      loader.o
    0x08067382   0x08067382   0x00000089   Data   RO          478    .rodata.str1.1      swap_misc.o
    0x0806740b   0x0806740b   0x00000213   Data   RO          520    .rodata.str1.1      swap_scratch.o
    0x0806761e   0x0806761e   0x00000002   PAD
    0x08067620   0x08067620   0x00000030   Data   RO         1083    Region$$Table       anon$$obj.o


    Execution Region MBL_SHARED_DATA (Exec base: 0x20000400, Load base: 0x08067650, Size: 0x00001600, Max: 0x00001600, ABSOLUTE)

    Exec Addr    Load Addr    Size         Type   Attr      Idx    E Section Name        Object

    0x20000400        -       0x00001600   Zero   RW            1    MBL_SHARED_DATA.bss  anon$$obj.o


    Execution Region MBL_DATA (Exec base: 0x20001a00, Load base: 0x08067650, Size: 0x00003ee0, Max: 0x00008000, ABSOLUTE)

    Exec Addr    Load Addr    Size         Type   Attr      Idx    E Section Name        Object

    0x20001a00   0x08067650   0x00000004   Data   RW          319    .data.FIH_BOOT_HOOK_REGULAR  fault_injection_hardening.o
    0x20001a04   0x08067654   0x00000004   Data   RW          317    .data.FIH_FAILURE   fault_injection_hardening.o
    0x20001a08   0x08067658   0x00000004   Data   RW          318    .data.FIH_NO_BOOTABLE_IMAGE  fault_injection_hardening.o
    0x20001a0c   0x0806765c   0x00000004   Data   RW          555    .data.SystemCoreClock  system_gd32f5xx.o
    0x20001a10   0x08067660   0x00000008   Data   RW          120    .data.bootutil_keys  keys.o
    0x20001a18   0x08067668   0x000004a7   Data   RW          122    .data.enc_priv_key  keys.o
    0x20001ebf   0x08067b0f   0x00000001   PAD
    0x20001ec0   0x08067b10   0x00000004   Data   RW          123    .data.enc_priv_key_len  keys.o
    0x20001ec4   0x08067b14   0x00000004   Data   RW           12    .data.p_ibl_api     mbl.o
    0x20001ec8        -       0x00000004   Zero   RW          316    .bss.FIH_SUCCESS    fault_injection_hardening.o
    0x20001ecc        -       0x00000004   Zero   RW           48    .bss.UART6_IRQHandler.flag_cnt  mbl_gd32f5xx_it.o
    0x20001ed0        -       0x00000400   Zero   RW          441    .bss.boot_copy_region.buf  loader.o
    0x200022d0        -       0x000000bc   Zero   RW          446    .bss.boot_data      loader.o
    0x2000238c        -       0x00000100   Zero   RW          447    .bss.boot_image_check.tmpbuf  loader.o
    0x2000248c        -       0x00000004   Zero   RW          519    .bss.boot_status_fails  swap_scratch.o
    0x20002490        -       0x00001000   Zero   RW          442    .bss.context_boot_go.primary_slot_sectors  loader.o
    0x20003490        -       0x00001000   Zero   RW          444    .bss.context_boot_go.scratch_sectors  loader.o
    0x20004490        -       0x00001000   Zero   RW          443    .bss.context_boot_go.secondary_slot_sectors  loader.o
    0x20005490        -       0x00000004   Zero   RW           66    .bss.delay          mbl_systick.o
    0x20005494        -       0x00000004   Zero   RW           16    .bss.do_boot.vt     mbl.o
    0x20005498        -       0x00000004   Zero   RW          119    .bss.rsa_pub_key_len  keys.o
    0x2000549c        -       0x00000444   Zero   RW           13    .bss.ymodem_packet  mbl.o


    Execution Region MBL_BUF (Exec base: 0x200058e0, Load base: 0x08067b18, Size: 0x00003000, Max: 0xffffffff, ABSOLUTE)

    Exec Addr    Load Addr    Size         Type   Attr      Idx    E Section Name        Object

    0x200058e0        -       0x00003000   Zero   RW           15    .bss.alloc_buf      mbl.o


    Execution Region ARM_LIB_STACKHEAP (Exec base: 0x200088e0, Load base: 0x08067b20, Size: 0x00004000, Max: 0x00004000, ABSOLUTE)

    Exec Addr    Load Addr    Size         Type   Attr      Idx    E Section Name        Object

    0x200088e0        -       0x00004000   Zero   RW            2    ARM_LIB_STACKHEAP.bss  anon$$obj.o


==============================================================================

Image component sizes


      Code (inc. data)   RO Data    RW Data    ZI Data      Debug   Object Name

        54          0         39          0          0        768   boot_hal.o
       942          0        216          0          0       5340   bootutil_misc.o
      2092          0        778          0          0      10403   bootutil_public.o
      1388          0         93          0          0       7245   encrypted.o
         0          0          0         12          4        742   fault_injection_hardening.o
       754          0         71          0          0       3770   flash_map.o
        40          0          0          0          0       6798   gd32f5xx_syscfg.o
       172          0          0          0          0      12361   gd32f5xx_usart.o
       126          0          0          0          0       1241   image_rsa.o
      1380          0          0          0          0       5831   image_validate.o
        34          0         12       1203          4       1379   keys.o
      6084          6        622          0      13756      15699   loader.o
       830          0        200          4      13384       9415   mbl.o
       940          0        369          0          4       5052   mbl_gd32f5xx_it.o
       260          0          0          0          4       5465   mbl_systick.o
        36          8        972          0          0        960   startup_gd32f5xx_mbl.o
      1196          0        137          0          0       5724   swap_misc.o
      3756          0        547          0          4      10373   swap_scratch.o
       608          0          0          4          0       3147   system_gd32f5xx.o
       532          0          0          0          0       2613   tlv.o

    ----------------------------------------------------------------------
     21376         14       4106       1224      49176     114326   Object Totals
         0          0         48          0      22016          0   (incl. Generated)
       152          0          2          1          0          0   (incl. Padding)

    ----------------------------------------------------------------------

      Code (inc. data)   RO Data    RW Data    ZI Data      Debug   Library Member Name

         0          0          0          0          0          0   entry.o
         0          0          0          0          0          0   entry10a.o
         0          0          0          0          0          0   entry11a.o
         8          4          0          0          0          0   entry3.o
         4          0          0          0          0          0   entry5.o
         0          0          0          0          0          0   entry7b.o
         0          0          0          0          0          0   entry8b.o
         8          4          0          0          0          0   entry9a.o
        30          0          0          0          0          0   handlers.o
        48         10          0          0          0         68   init.o
        26          0          0          0          0         80   memcmp.o
        36          0          0          0          0         68   memcpya.o
        36          0          0          0          0        108   memseta.o

    ----------------------------------------------------------------------
       198         18          0          0          0        324   Library Totals
         2          0          0          0          0          0   (incl. Padding)

    ----------------------------------------------------------------------

      Code (inc. data)   RO Data    RW Data    ZI Data      Debug   Library Name

       196         18          0          0          0        324   mc_w.l

    ----------------------------------------------------------------------
       198         18          0          0          0        324   Library Totals

    ----------------------------------------------------------------------

==============================================================================


      Code (inc. data)   RO Data    RW Data    ZI Data      Debug   

     21574         32       4106       1224      49176     114410   Grand Totals
     21574         32       4106       1224      49176     114410   ELF Image Totals
     21574         32       4106       1224          0          0   ROM Totals

==============================================================================

    Total RO  Size (Code + RO Data)                25680 (  25.08kB)
    Total RW  Size (RW Data + ZI Data)             50400 (  49.22kB)
    Total ROM Size (Code + RO Data + RW Data)      26904 (  26.27kB)

==============================================================================

